
ctarget:     file format elf64-x86-64


Disassembly of section .init:

0000000000000dc8 <_init>:
 dc8:	48 83 ec 08          	sub    $0x8,%rsp
 dcc:	48 8b 05 15 42 20 00 	mov    0x204215(%rip),%rax        # 204fe8 <__gmon_start__>
 dd3:	48 85 c0             	test   %rax,%rax
 dd6:	74 02                	je     dda <_init+0x12>
 dd8:	ff d0                	callq  *%rax
 dda:	48 83 c4 08          	add    $0x8,%rsp
 dde:	c3                   	retq   

Disassembly of section .plt:

0000000000000de0 <.plt>:
     de0:	ff 35 da 40 20 00    	pushq  0x2040da(%rip)        # 204ec0 <_GLOBAL_OFFSET_TABLE_+0x8>
     de6:	ff 25 dc 40 20 00    	jmpq   *0x2040dc(%rip)        # 204ec8 <_GLOBAL_OFFSET_TABLE_+0x10>
     dec:	0f 1f 40 00          	nopl   0x0(%rax)

0000000000000df0 <strcasecmp@plt>:
     df0:	ff 25 da 40 20 00    	jmpq   *0x2040da(%rip)        # 204ed0 <strcasecmp@GLIBC_2.2.5>
     df6:	68 00 00 00 00       	pushq  $0x0
     dfb:	e9 e0 ff ff ff       	jmpq   de0 <.plt>

0000000000000e00 <__errno_location@plt>:
     e00:	ff 25 d2 40 20 00    	jmpq   *0x2040d2(%rip)        # 204ed8 <__errno_location@GLIBC_2.2.5>
     e06:	68 01 00 00 00       	pushq  $0x1
     e0b:	e9 d0 ff ff ff       	jmpq   de0 <.plt>

0000000000000e10 <srandom@plt>:
     e10:	ff 25 ca 40 20 00    	jmpq   *0x2040ca(%rip)        # 204ee0 <srandom@GLIBC_2.2.5>
     e16:	68 02 00 00 00       	pushq  $0x2
     e1b:	e9 c0 ff ff ff       	jmpq   de0 <.plt>

0000000000000e20 <strncmp@plt>:
     e20:	ff 25 c2 40 20 00    	jmpq   *0x2040c2(%rip)        # 204ee8 <strncmp@GLIBC_2.2.5>
     e26:	68 03 00 00 00       	pushq  $0x3
     e2b:	e9 b0 ff ff ff       	jmpq   de0 <.plt>

0000000000000e30 <strcpy@plt>:
     e30:	ff 25 ba 40 20 00    	jmpq   *0x2040ba(%rip)        # 204ef0 <strcpy@GLIBC_2.2.5>
     e36:	68 04 00 00 00       	pushq  $0x4
     e3b:	e9 a0 ff ff ff       	jmpq   de0 <.plt>

0000000000000e40 <puts@plt>:
     e40:	ff 25 b2 40 20 00    	jmpq   *0x2040b2(%rip)        # 204ef8 <puts@GLIBC_2.2.5>
     e46:	68 05 00 00 00       	pushq  $0x5
     e4b:	e9 90 ff ff ff       	jmpq   de0 <.plt>

0000000000000e50 <write@plt>:
     e50:	ff 25 aa 40 20 00    	jmpq   *0x2040aa(%rip)        # 204f00 <write@GLIBC_2.2.5>
     e56:	68 06 00 00 00       	pushq  $0x6
     e5b:	e9 80 ff ff ff       	jmpq   de0 <.plt>

0000000000000e60 <__stack_chk_fail@plt>:
     e60:	ff 25 a2 40 20 00    	jmpq   *0x2040a2(%rip)        # 204f08 <__stack_chk_fail@GLIBC_2.4>
     e66:	68 07 00 00 00       	pushq  $0x7
     e6b:	e9 70 ff ff ff       	jmpq   de0 <.plt>

0000000000000e70 <mmap@plt>:
     e70:	ff 25 9a 40 20 00    	jmpq   *0x20409a(%rip)        # 204f10 <mmap@GLIBC_2.2.5>
     e76:	68 08 00 00 00       	pushq  $0x8
     e7b:	e9 60 ff ff ff       	jmpq   de0 <.plt>

0000000000000e80 <memset@plt>:
     e80:	ff 25 92 40 20 00    	jmpq   *0x204092(%rip)        # 204f18 <memset@GLIBC_2.2.5>
     e86:	68 09 00 00 00       	pushq  $0x9
     e8b:	e9 50 ff ff ff       	jmpq   de0 <.plt>

0000000000000e90 <alarm@plt>:
     e90:	ff 25 8a 40 20 00    	jmpq   *0x20408a(%rip)        # 204f20 <alarm@GLIBC_2.2.5>
     e96:	68 0a 00 00 00       	pushq  $0xa
     e9b:	e9 40 ff ff ff       	jmpq   de0 <.plt>

0000000000000ea0 <close@plt>:
     ea0:	ff 25 82 40 20 00    	jmpq   *0x204082(%rip)        # 204f28 <close@GLIBC_2.2.5>
     ea6:	68 0b 00 00 00       	pushq  $0xb
     eab:	e9 30 ff ff ff       	jmpq   de0 <.plt>

0000000000000eb0 <read@plt>:
     eb0:	ff 25 7a 40 20 00    	jmpq   *0x20407a(%rip)        # 204f30 <read@GLIBC_2.2.5>
     eb6:	68 0c 00 00 00       	pushq  $0xc
     ebb:	e9 20 ff ff ff       	jmpq   de0 <.plt>

0000000000000ec0 <signal@plt>:
     ec0:	ff 25 72 40 20 00    	jmpq   *0x204072(%rip)        # 204f38 <signal@GLIBC_2.2.5>
     ec6:	68 0d 00 00 00       	pushq  $0xd
     ecb:	e9 10 ff ff ff       	jmpq   de0 <.plt>

0000000000000ed0 <gethostbyname@plt>:
     ed0:	ff 25 6a 40 20 00    	jmpq   *0x20406a(%rip)        # 204f40 <gethostbyname@GLIBC_2.2.5>
     ed6:	68 0e 00 00 00       	pushq  $0xe
     edb:	e9 00 ff ff ff       	jmpq   de0 <.plt>

0000000000000ee0 <__memmove_chk@plt>:
     ee0:	ff 25 62 40 20 00    	jmpq   *0x204062(%rip)        # 204f48 <__memmove_chk@GLIBC_2.3.4>
     ee6:	68 0f 00 00 00       	pushq  $0xf
     eeb:	e9 f0 fe ff ff       	jmpq   de0 <.plt>

0000000000000ef0 <strtol@plt>:
     ef0:	ff 25 5a 40 20 00    	jmpq   *0x20405a(%rip)        # 204f50 <strtol@GLIBC_2.2.5>
     ef6:	68 10 00 00 00       	pushq  $0x10
     efb:	e9 e0 fe ff ff       	jmpq   de0 <.plt>

0000000000000f00 <memcpy@plt>:
     f00:	ff 25 52 40 20 00    	jmpq   *0x204052(%rip)        # 204f58 <memcpy@GLIBC_2.14>
     f06:	68 11 00 00 00       	pushq  $0x11
     f0b:	e9 d0 fe ff ff       	jmpq   de0 <.plt>

0000000000000f10 <time@plt>:
     f10:	ff 25 4a 40 20 00    	jmpq   *0x20404a(%rip)        # 204f60 <time@GLIBC_2.2.5>
     f16:	68 12 00 00 00       	pushq  $0x12
     f1b:	e9 c0 fe ff ff       	jmpq   de0 <.plt>

0000000000000f20 <random@plt>:
     f20:	ff 25 42 40 20 00    	jmpq   *0x204042(%rip)        # 204f68 <random@GLIBC_2.2.5>
     f26:	68 13 00 00 00       	pushq  $0x13
     f2b:	e9 b0 fe ff ff       	jmpq   de0 <.plt>

0000000000000f30 <_IO_getc@plt>:
     f30:	ff 25 3a 40 20 00    	jmpq   *0x20403a(%rip)        # 204f70 <_IO_getc@GLIBC_2.2.5>
     f36:	68 14 00 00 00       	pushq  $0x14
     f3b:	e9 a0 fe ff ff       	jmpq   de0 <.plt>

0000000000000f40 <__isoc99_sscanf@plt>:
     f40:	ff 25 32 40 20 00    	jmpq   *0x204032(%rip)        # 204f78 <__isoc99_sscanf@GLIBC_2.7>
     f46:	68 15 00 00 00       	pushq  $0x15
     f4b:	e9 90 fe ff ff       	jmpq   de0 <.plt>

0000000000000f50 <munmap@plt>:
     f50:	ff 25 2a 40 20 00    	jmpq   *0x20402a(%rip)        # 204f80 <munmap@GLIBC_2.2.5>
     f56:	68 16 00 00 00       	pushq  $0x16
     f5b:	e9 80 fe ff ff       	jmpq   de0 <.plt>

0000000000000f60 <__printf_chk@plt>:
     f60:	ff 25 22 40 20 00    	jmpq   *0x204022(%rip)        # 204f88 <__printf_chk@GLIBC_2.3.4>
     f66:	68 17 00 00 00       	pushq  $0x17
     f6b:	e9 70 fe ff ff       	jmpq   de0 <.plt>

0000000000000f70 <fopen@plt>:
     f70:	ff 25 1a 40 20 00    	jmpq   *0x20401a(%rip)        # 204f90 <fopen@GLIBC_2.2.5>
     f76:	68 18 00 00 00       	pushq  $0x18
     f7b:	e9 60 fe ff ff       	jmpq   de0 <.plt>

0000000000000f80 <getopt@plt>:
     f80:	ff 25 12 40 20 00    	jmpq   *0x204012(%rip)        # 204f98 <getopt@GLIBC_2.2.5>
     f86:	68 19 00 00 00       	pushq  $0x19
     f8b:	e9 50 fe ff ff       	jmpq   de0 <.plt>

0000000000000f90 <strtoul@plt>:
     f90:	ff 25 0a 40 20 00    	jmpq   *0x20400a(%rip)        # 204fa0 <strtoul@GLIBC_2.2.5>
     f96:	68 1a 00 00 00       	pushq  $0x1a
     f9b:	e9 40 fe ff ff       	jmpq   de0 <.plt>

0000000000000fa0 <gethostname@plt>:
     fa0:	ff 25 02 40 20 00    	jmpq   *0x204002(%rip)        # 204fa8 <gethostname@GLIBC_2.2.5>
     fa6:	68 1b 00 00 00       	pushq  $0x1b
     fab:	e9 30 fe ff ff       	jmpq   de0 <.plt>

0000000000000fb0 <exit@plt>:
     fb0:	ff 25 fa 3f 20 00    	jmpq   *0x203ffa(%rip)        # 204fb0 <exit@GLIBC_2.2.5>
     fb6:	68 1c 00 00 00       	pushq  $0x1c
     fbb:	e9 20 fe ff ff       	jmpq   de0 <.plt>

0000000000000fc0 <connect@plt>:
     fc0:	ff 25 f2 3f 20 00    	jmpq   *0x203ff2(%rip)        # 204fb8 <connect@GLIBC_2.2.5>
     fc6:	68 1d 00 00 00       	pushq  $0x1d
     fcb:	e9 10 fe ff ff       	jmpq   de0 <.plt>

0000000000000fd0 <__fprintf_chk@plt>:
     fd0:	ff 25 ea 3f 20 00    	jmpq   *0x203fea(%rip)        # 204fc0 <__fprintf_chk@GLIBC_2.3.4>
     fd6:	68 1e 00 00 00       	pushq  $0x1e
     fdb:	e9 00 fe ff ff       	jmpq   de0 <.plt>

0000000000000fe0 <__sprintf_chk@plt>:
     fe0:	ff 25 e2 3f 20 00    	jmpq   *0x203fe2(%rip)        # 204fc8 <__sprintf_chk@GLIBC_2.3.4>
     fe6:	68 1f 00 00 00       	pushq  $0x1f
     feb:	e9 f0 fd ff ff       	jmpq   de0 <.plt>

0000000000000ff0 <socket@plt>:
     ff0:	ff 25 da 3f 20 00    	jmpq   *0x203fda(%rip)        # 204fd0 <socket@GLIBC_2.2.5>
     ff6:	68 20 00 00 00       	pushq  $0x20
     ffb:	e9 e0 fd ff ff       	jmpq   de0 <.plt>

Disassembly of section .plt.got:

0000000000001000 <__cxa_finalize@plt>:
    1000:	ff 25 f2 3f 20 00    	jmpq   *0x203ff2(%rip)        # 204ff8 <__cxa_finalize@GLIBC_2.2.5>
    1006:	66 90                	xchg   %ax,%ax

Disassembly of section .text:

0000000000001010 <_start>:
    1010:	31 ed                	xor    %ebp,%ebp
    1012:	49 89 d1             	mov    %rdx,%r9
    1015:	5e                   	pop    %rsi
    1016:	48 89 e2             	mov    %rsp,%rdx
    1019:	48 83 e4 f0          	and    $0xfffffffffffffff0,%rsp
    101d:	50                   	push   %rax
    101e:	54                   	push   %rsp
    101f:	4c 8d 05 6a 21 00 00 	lea    0x216a(%rip),%r8        # 3190 <__libc_csu_fini>
    1026:	48 8d 0d f3 20 00 00 	lea    0x20f3(%rip),%rcx        # 3120 <__libc_csu_init>
    102d:	48 8d 3d 0d 03 00 00 	lea    0x30d(%rip),%rdi        # 1341 <main>
    1034:	ff 15 a6 3f 20 00    	callq  *0x203fa6(%rip)        # 204fe0 <__libc_start_main@GLIBC_2.2.5>
    103a:	f4                   	hlt    
    103b:	0f 1f 44 00 00       	nopl   0x0(%rax,%rax,1)

0000000000001040 <deregister_tm_clones>:
    1040:	48 8d 3d 29 43 20 00 	lea    0x204329(%rip),%rdi        # 205370 <__TMC_END__>
    1047:	55                   	push   %rbp
    1048:	48 8d 05 21 43 20 00 	lea    0x204321(%rip),%rax        # 205370 <__TMC_END__>
    104f:	48 39 f8             	cmp    %rdi,%rax
    1052:	48 89 e5             	mov    %rsp,%rbp
    1055:	74 19                	je     1070 <deregister_tm_clones+0x30>
    1057:	48 8b 05 7a 3f 20 00 	mov    0x203f7a(%rip),%rax        # 204fd8 <_ITM_deregisterTMCloneTable>
    105e:	48 85 c0             	test   %rax,%rax
    1061:	74 0d                	je     1070 <deregister_tm_clones+0x30>
    1063:	5d                   	pop    %rbp
    1064:	ff e0                	jmpq   *%rax
    1066:	66 2e 0f 1f 84 00 00 	nopw   %cs:0x0(%rax,%rax,1)
    106d:	00 00 00 
    1070:	5d                   	pop    %rbp
    1071:	c3                   	retq   
    1072:	0f 1f 40 00          	nopl   0x0(%rax)
    1076:	66 2e 0f 1f 84 00 00 	nopw   %cs:0x0(%rax,%rax,1)
    107d:	00 00 00 

0000000000001080 <register_tm_clones>:
    1080:	48 8d 3d e9 42 20 00 	lea    0x2042e9(%rip),%rdi        # 205370 <__TMC_END__>
    1087:	48 8d 35 e2 42 20 00 	lea    0x2042e2(%rip),%rsi        # 205370 <__TMC_END__>
    108e:	55                   	push   %rbp
    108f:	48 29 fe             	sub    %rdi,%rsi
    1092:	48 89 e5             	mov    %rsp,%rbp
    1095:	48 c1 fe 03          	sar    $0x3,%rsi
    1099:	48 89 f0             	mov    %rsi,%rax
    109c:	48 c1 e8 3f          	shr    $0x3f,%rax
    10a0:	48 01 c6             	add    %rax,%rsi
    10a3:	48 d1 fe             	sar    %rsi
    10a6:	74 18                	je     10c0 <register_tm_clones+0x40>
    10a8:	48 8b 05 41 3f 20 00 	mov    0x203f41(%rip),%rax        # 204ff0 <_ITM_registerTMCloneTable>
    10af:	48 85 c0             	test   %rax,%rax
    10b2:	74 0c                	je     10c0 <register_tm_clones+0x40>
    10b4:	5d                   	pop    %rbp
    10b5:	ff e0                	jmpq   *%rax
    10b7:	66 0f 1f 84 00 00 00 	nopw   0x0(%rax,%rax,1)
    10be:	00 00 
    10c0:	5d                   	pop    %rbp
    10c1:	c3                   	retq   
    10c2:	0f 1f 40 00          	nopl   0x0(%rax)
    10c6:	66 2e 0f 1f 84 00 00 	nopw   %cs:0x0(%rax,%rax,1)
    10cd:	00 00 00 

00000000000010d0 <__do_global_dtors_aux>:
    10d0:	80 3d d1 42 20 00 00 	cmpb   $0x0,0x2042d1(%rip)        # 2053a8 <completed.7698>
    10d7:	75 2f                	jne    1108 <__do_global_dtors_aux+0x38>
    10d9:	48 83 3d 17 3f 20 00 	cmpq   $0x0,0x203f17(%rip)        # 204ff8 <__cxa_finalize@GLIBC_2.2.5>
    10e0:	00 
    10e1:	55                   	push   %rbp
    10e2:	48 89 e5             	mov    %rsp,%rbp
    10e5:	74 0c                	je     10f3 <__do_global_dtors_aux+0x23>
    10e7:	48 8b 3d 1a 3f 20 00 	mov    0x203f1a(%rip),%rdi        # 205008 <__dso_handle>
    10ee:	e8 0d ff ff ff       	callq  1000 <__cxa_finalize@plt>
    10f3:	e8 48 ff ff ff       	callq  1040 <deregister_tm_clones>
    10f8:	c6 05 a9 42 20 00 01 	movb   $0x1,0x2042a9(%rip)        # 2053a8 <completed.7698>
    10ff:	5d                   	pop    %rbp
    1100:	c3                   	retq   
    1101:	0f 1f 80 00 00 00 00 	nopl   0x0(%rax)
    1108:	f3 c3                	repz retq 
    110a:	66 0f 1f 44 00 00    	nopw   0x0(%rax,%rax,1)

0000000000001110 <frame_dummy>:
    1110:	55                   	push   %rbp
    1111:	48 89 e5             	mov    %rsp,%rbp
    1114:	5d                   	pop    %rbp
    1115:	e9 66 ff ff ff       	jmpq   1080 <register_tm_clones>

000000000000111a <usage>:
    111a:	48 83 ec 08          	sub    $0x8,%rsp
    111e:	48 89 fa             	mov    %rdi,%rdx
    1121:	83 3d c0 42 20 00 00 	cmpl   $0x0,0x2042c0(%rip)        # 2053e8 <is_checker>
    1128:	74 50                	je     117a <usage+0x60>
    112a:	48 8d 35 77 20 00 00 	lea    0x2077(%rip),%rsi        # 31a8 <_IO_stdin_used+0x8>
    1131:	bf 01 00 00 00       	mov    $0x1,%edi
    1136:	b8 00 00 00 00       	mov    $0x0,%eax
    113b:	e8 20 fe ff ff       	callq  f60 <__printf_chk@plt>
    1140:	48 8d 3d 99 20 00 00 	lea    0x2099(%rip),%rdi        # 31e0 <_IO_stdin_used+0x40>
    1147:	e8 f4 fc ff ff       	callq  e40 <puts@plt>
    114c:	48 8d 3d 05 22 00 00 	lea    0x2205(%rip),%rdi        # 3358 <_IO_stdin_used+0x1b8>
    1153:	e8 e8 fc ff ff       	callq  e40 <puts@plt>
    1158:	48 8d 3d a9 20 00 00 	lea    0x20a9(%rip),%rdi        # 3208 <_IO_stdin_used+0x68>
    115f:	e8 dc fc ff ff       	callq  e40 <puts@plt>
    1164:	48 8d 3d 07 22 00 00 	lea    0x2207(%rip),%rdi        # 3372 <_IO_stdin_used+0x1d2>
    116b:	e8 d0 fc ff ff       	callq  e40 <puts@plt>
    1170:	bf 00 00 00 00       	mov    $0x0,%edi
    1175:	e8 36 fe ff ff       	callq  fb0 <exit@plt>
    117a:	48 8d 35 0d 22 00 00 	lea    0x220d(%rip),%rsi        # 338e <_IO_stdin_used+0x1ee>
    1181:	bf 01 00 00 00       	mov    $0x1,%edi
    1186:	b8 00 00 00 00       	mov    $0x0,%eax
    118b:	e8 d0 fd ff ff       	callq  f60 <__printf_chk@plt>
    1190:	48 8d 3d 99 20 00 00 	lea    0x2099(%rip),%rdi        # 3230 <_IO_stdin_used+0x90>
    1197:	e8 a4 fc ff ff       	callq  e40 <puts@plt>
    119c:	48 8d 3d b5 20 00 00 	lea    0x20b5(%rip),%rdi        # 3258 <_IO_stdin_used+0xb8>
    11a3:	e8 98 fc ff ff       	callq  e40 <puts@plt>
    11a8:	48 8d 3d fd 21 00 00 	lea    0x21fd(%rip),%rdi        # 33ac <_IO_stdin_used+0x20c>
    11af:	e8 8c fc ff ff       	callq  e40 <puts@plt>
    11b4:	eb ba                	jmp    1170 <usage+0x56>

00000000000011b6 <initialize_target>:
    11b6:	55                   	push   %rbp
    11b7:	53                   	push   %rbx
    11b8:	48 81 ec 18 21 00 00 	sub    $0x2118,%rsp
    11bf:	89 f5                	mov    %esi,%ebp
    11c1:	64 48 8b 04 25 28 00 	mov    %fs:0x28,%rax
    11c8:	00 00 
    11ca:	48 89 84 24 08 21 00 	mov    %rax,0x2108(%rsp)
    11d1:	00 
    11d2:	31 c0                	xor    %eax,%eax
    11d4:	89 3d fe 41 20 00    	mov    %edi,0x2041fe(%rip)        # 2053d8 <check_level>
    11da:	8b 3d 30 3e 20 00    	mov    0x203e30(%rip),%edi        # 205010 <target_id>
    11e0:	e8 1a 1f 00 00       	callq  30ff <gencookie>
    11e5:	89 05 f9 41 20 00    	mov    %eax,0x2041f9(%rip)        # 2053e4 <cookie>
    11eb:	89 c7                	mov    %eax,%edi
    11ed:	e8 0d 1f 00 00       	callq  30ff <gencookie>
    11f2:	89 05 e8 41 20 00    	mov    %eax,0x2041e8(%rip)        # 2053e0 <authkey>
    11f8:	8b 05 12 3e 20 00    	mov    0x203e12(%rip),%eax        # 205010 <target_id>
    11fe:	8d 78 01             	lea    0x1(%rax),%edi
    1201:	e8 0a fc ff ff       	callq  e10 <srandom@plt>
    1206:	e8 15 fd ff ff       	callq  f20 <random@plt>
    120b:	89 c7                	mov    %eax,%edi
    120d:	e8 1a 03 00 00       	callq  152c <scramble>
    1212:	89 c3                	mov    %eax,%ebx
    1214:	85 ed                	test   %ebp,%ebp
    1216:	75 54                	jne    126c <initialize_target+0xb6>
    1218:	b8 00 00 00 00       	mov    $0x0,%eax
    121d:	01 d8                	add    %ebx,%eax
    121f:	0f b7 c0             	movzwl %ax,%eax
    1222:	8d 04 c5 00 01 00 00 	lea    0x100(,%rax,8),%eax
    1229:	89 c0                	mov    %eax,%eax
    122b:	48 89 05 2e 41 20 00 	mov    %rax,0x20412e(%rip)        # 205360 <buf_offset>
    1232:	c6 05 cf 4d 20 00 63 	movb   $0x63,0x204dcf(%rip)        # 206008 <target_prefix>
    1239:	83 3d 28 41 20 00 00 	cmpl   $0x0,0x204128(%rip)        # 205368 <notify>
    1240:	74 09                	je     124b <initialize_target+0x95>
    1242:	83 3d 9f 41 20 00 00 	cmpl   $0x0,0x20419f(%rip)        # 2053e8 <is_checker>
    1249:	74 39                	je     1284 <initialize_target+0xce>
    124b:	48 8b 84 24 08 21 00 	mov    0x2108(%rsp),%rax
    1252:	00 
    1253:	64 48 33 04 25 28 00 	xor    %fs:0x28,%rax
    125a:	00 00 
    125c:	0f 85 da 00 00 00    	jne    133c <initialize_target+0x186>
    1262:	48 81 c4 18 21 00 00 	add    $0x2118,%rsp
    1269:	5b                   	pop    %rbx
    126a:	5d                   	pop    %rbp
    126b:	c3                   	retq   
    126c:	bf 00 00 00 00       	mov    $0x0,%edi
    1271:	e8 9a fc ff ff       	callq  f10 <time@plt>
    1276:	89 c7                	mov    %eax,%edi
    1278:	e8 93 fb ff ff       	callq  e10 <srandom@plt>
    127d:	e8 9e fc ff ff       	callq  f20 <random@plt>
    1282:	eb 99                	jmp    121d <initialize_target+0x67>
    1284:	48 89 e7             	mov    %rsp,%rdi
    1287:	be 00 01 00 00       	mov    $0x100,%esi
    128c:	e8 0f fd ff ff       	callq  fa0 <gethostname@plt>
    1291:	89 c5                	mov    %eax,%ebp
    1293:	85 c0                	test   %eax,%eax
    1295:	75 26                	jne    12bd <initialize_target+0x107>
    1297:	89 c3                	mov    %eax,%ebx
    1299:	48 63 c3             	movslq %ebx,%rax
    129c:	48 8d 15 9d 3d 20 00 	lea    0x203d9d(%rip),%rdx        # 205040 <host_table>
    12a3:	48 8b 3c c2          	mov    (%rdx,%rax,8),%rdi
    12a7:	48 85 ff             	test   %rdi,%rdi
    12aa:	74 2c                	je     12d8 <initialize_target+0x122>
    12ac:	48 89 e6             	mov    %rsp,%rsi
    12af:	e8 3c fb ff ff       	callq  df0 <strcasecmp@plt>
    12b4:	85 c0                	test   %eax,%eax
    12b6:	74 1b                	je     12d3 <initialize_target+0x11d>
    12b8:	83 c3 01             	add    $0x1,%ebx
    12bb:	eb dc                	jmp    1299 <initialize_target+0xe3>
    12bd:	48 8d 3d c4 1f 00 00 	lea    0x1fc4(%rip),%rdi        # 3288 <_IO_stdin_used+0xe8>
    12c4:	e8 77 fb ff ff       	callq  e40 <puts@plt>
    12c9:	bf 08 00 00 00       	mov    $0x8,%edi
    12ce:	e8 dd fc ff ff       	callq  fb0 <exit@plt>
    12d3:	bd 01 00 00 00       	mov    $0x1,%ebp
    12d8:	85 ed                	test   %ebp,%ebp
    12da:	74 3d                	je     1319 <initialize_target+0x163>
    12dc:	48 8d bc 24 00 01 00 	lea    0x100(%rsp),%rdi
    12e3:	00 
    12e4:	e8 2f 1b 00 00       	callq  2e18 <init_driver>
    12e9:	85 c0                	test   %eax,%eax
    12eb:	0f 89 5a ff ff ff    	jns    124b <initialize_target+0x95>
    12f1:	48 8d 94 24 00 01 00 	lea    0x100(%rsp),%rdx
    12f8:	00 
    12f9:	48 8d 35 00 20 00 00 	lea    0x2000(%rip),%rsi        # 3300 <_IO_stdin_used+0x160>
    1300:	bf 01 00 00 00       	mov    $0x1,%edi
    1305:	b8 00 00 00 00       	mov    $0x0,%eax
    130a:	e8 51 fc ff ff       	callq  f60 <__printf_chk@plt>
    130f:	bf 08 00 00 00       	mov    $0x8,%edi
    1314:	e8 97 fc ff ff       	callq  fb0 <exit@plt>
    1319:	48 89 e2             	mov    %rsp,%rdx
    131c:	48 8d 35 9d 1f 00 00 	lea    0x1f9d(%rip),%rsi        # 32c0 <_IO_stdin_used+0x120>
    1323:	bf 01 00 00 00       	mov    $0x1,%edi
    1328:	b8 00 00 00 00       	mov    $0x0,%eax
    132d:	e8 2e fc ff ff       	callq  f60 <__printf_chk@plt>
    1332:	bf 08 00 00 00       	mov    $0x8,%edi
    1337:	e8 74 fc ff ff       	callq  fb0 <exit@plt>
    133c:	e8 1f fb ff ff       	callq  e60 <__stack_chk_fail@plt>

0000000000001341 <main>:
    1341:	41 56                	push   %r14
    1343:	41 55                	push   %r13
    1345:	41 54                	push   %r12
    1347:	55                   	push   %rbp
    1348:	53                   	push   %rbx
    1349:	41 89 fc             	mov    %edi,%r12d
    134c:	48 89 f3             	mov    %rsi,%rbx
    134f:	48 8d 35 b8 0d 00 00 	lea    0xdb8(%rip),%rsi        # 210e <seghandler>
    1356:	bf 0b 00 00 00       	mov    $0xb,%edi
    135b:	e8 60 fb ff ff       	callq  ec0 <signal@plt>
    1360:	48 8d 35 53 0d 00 00 	lea    0xd53(%rip),%rsi        # 20ba <bushandler>
    1367:	bf 07 00 00 00       	mov    $0x7,%edi
    136c:	e8 4f fb ff ff       	callq  ec0 <signal@plt>
    1371:	48 8d 35 ea 0d 00 00 	lea    0xdea(%rip),%rsi        # 2162 <illegalhandler>
    1378:	bf 04 00 00 00       	mov    $0x4,%edi
    137d:	e8 3e fb ff ff       	callq  ec0 <signal@plt>
    1382:	83 3d 5f 40 20 00 00 	cmpl   $0x0,0x20405f(%rip)        # 2053e8 <is_checker>
    1389:	75 26                	jne    13b1 <main+0x70>
    138b:	48 8d 2d 33 20 00 00 	lea    0x2033(%rip),%rbp        # 33c5 <_IO_stdin_used+0x225>
    1392:	48 8b 05 e7 3f 20 00 	mov    0x203fe7(%rip),%rax        # 205380 <stdin@@GLIBC_2.2.5>
    1399:	48 89 05 30 40 20 00 	mov    %rax,0x204030(%rip)        # 2053d0 <infile>
    13a0:	41 bd 00 00 00 00    	mov    $0x0,%r13d
    13a6:	41 be 00 00 00 00    	mov    $0x0,%r14d
    13ac:	e9 8d 00 00 00       	jmpq   143e <main+0xfd>
    13b1:	48 8d 35 fe 0d 00 00 	lea    0xdfe(%rip),%rsi        # 21b6 <sigalrmhandler>
    13b8:	bf 0e 00 00 00       	mov    $0xe,%edi
    13bd:	e8 fe fa ff ff       	callq  ec0 <signal@plt>
    13c2:	bf 05 00 00 00       	mov    $0x5,%edi
    13c7:	e8 c4 fa ff ff       	callq  e90 <alarm@plt>
    13cc:	48 8d 2d f7 1f 00 00 	lea    0x1ff7(%rip),%rbp        # 33ca <_IO_stdin_used+0x22a>
    13d3:	eb bd                	jmp    1392 <main+0x51>
    13d5:	48 8b 3b             	mov    (%rbx),%rdi
    13d8:	e8 3d fd ff ff       	callq  111a <usage>
    13dd:	48 8d 35 41 22 00 00 	lea    0x2241(%rip),%rsi        # 3625 <_IO_stdin_used+0x485>
    13e4:	48 8b 3d 9d 3f 20 00 	mov    0x203f9d(%rip),%rdi        # 205388 <optarg@@GLIBC_2.2.5>
    13eb:	e8 80 fb ff ff       	callq  f70 <fopen@plt>
    13f0:	48 89 05 d9 3f 20 00 	mov    %rax,0x203fd9(%rip)        # 2053d0 <infile>
    13f7:	48 85 c0             	test   %rax,%rax
    13fa:	75 42                	jne    143e <main+0xfd>
    13fc:	48 8b 0d 85 3f 20 00 	mov    0x203f85(%rip),%rcx        # 205388 <optarg@@GLIBC_2.2.5>
    1403:	48 8d 15 c8 1f 00 00 	lea    0x1fc8(%rip),%rdx        # 33d2 <_IO_stdin_used+0x232>
    140a:	be 01 00 00 00       	mov    $0x1,%esi
    140f:	48 8b 3d 8a 3f 20 00 	mov    0x203f8a(%rip),%rdi        # 2053a0 <stderr@@GLIBC_2.2.5>
    1416:	e8 b5 fb ff ff       	callq  fd0 <__fprintf_chk@plt>
    141b:	b8 01 00 00 00       	mov    $0x1,%eax
    1420:	e9 d9 00 00 00       	jmpq   14fe <main+0x1bd>
    1425:	ba 10 00 00 00       	mov    $0x10,%edx
    142a:	be 00 00 00 00       	mov    $0x0,%esi
    142f:	48 8b 3d 52 3f 20 00 	mov    0x203f52(%rip),%rdi        # 205388 <optarg@@GLIBC_2.2.5>
    1436:	e8 55 fb ff ff       	callq  f90 <strtoul@plt>
    143b:	41 89 c6             	mov    %eax,%r14d
    143e:	48 89 ea             	mov    %rbp,%rdx
    1441:	48 89 de             	mov    %rbx,%rsi
    1444:	44 89 e7             	mov    %r12d,%edi
    1447:	e8 34 fb ff ff       	callq  f80 <getopt@plt>
    144c:	3c ff                	cmp    $0xff,%al
    144e:	74 62                	je     14b2 <main+0x171>
    1450:	0f be d0             	movsbl %al,%edx
    1453:	83 e8 61             	sub    $0x61,%eax
    1456:	3c 10                	cmp    $0x10,%al
    1458:	77 3a                	ja     1494 <main+0x153>
    145a:	0f b6 c0             	movzbl %al,%eax
    145d:	48 8d 0d ac 1f 00 00 	lea    0x1fac(%rip),%rcx        # 3410 <_IO_stdin_used+0x270>
    1464:	48 63 04 81          	movslq (%rcx,%rax,4),%rax
    1468:	48 01 c8             	add    %rcx,%rax
    146b:	ff e0                	jmpq   *%rax
    146d:	ba 0a 00 00 00       	mov    $0xa,%edx
    1472:	be 00 00 00 00       	mov    $0x0,%esi
    1477:	48 8b 3d 0a 3f 20 00 	mov    0x203f0a(%rip),%rdi        # 205388 <optarg@@GLIBC_2.2.5>
    147e:	e8 6d fa ff ff       	callq  ef0 <strtol@plt>
    1483:	41 89 c5             	mov    %eax,%r13d
    1486:	eb b6                	jmp    143e <main+0xfd>
    1488:	c7 05 d6 3e 20 00 00 	movl   $0x0,0x203ed6(%rip)        # 205368 <notify>
    148f:	00 00 00 
    1492:	eb aa                	jmp    143e <main+0xfd>
    1494:	48 8d 35 54 1f 00 00 	lea    0x1f54(%rip),%rsi        # 33ef <_IO_stdin_used+0x24f>
    149b:	bf 01 00 00 00       	mov    $0x1,%edi
    14a0:	b8 00 00 00 00       	mov    $0x0,%eax
    14a5:	e8 b6 fa ff ff       	callq  f60 <__printf_chk@plt>
    14aa:	48 8b 3b             	mov    (%rbx),%rdi
    14ad:	e8 68 fc ff ff       	callq  111a <usage>
    14b2:	be 00 00 00 00       	mov    $0x0,%esi
    14b7:	44 89 ef             	mov    %r13d,%edi
    14ba:	e8 f7 fc ff ff       	callq  11b6 <initialize_target>
    14bf:	83 3d 22 3f 20 00 00 	cmpl   $0x0,0x203f22(%rip)        # 2053e8 <is_checker>
    14c6:	74 09                	je     14d1 <main+0x190>
    14c8:	44 39 35 11 3f 20 00 	cmp    %r14d,0x203f11(%rip)        # 2053e0 <authkey>
    14cf:	75 36                	jne    1507 <main+0x1c6>
    14d1:	8b 15 0d 3f 20 00    	mov    0x203f0d(%rip),%edx        # 2053e4 <cookie>
    14d7:	48 8d 35 24 1f 00 00 	lea    0x1f24(%rip),%rsi        # 3402 <_IO_stdin_used+0x262>
    14de:	bf 01 00 00 00       	mov    $0x1,%edi
    14e3:	b8 00 00 00 00       	mov    $0x0,%eax
    14e8:	e8 73 fa ff ff       	callq  f60 <__printf_chk@plt>
    14ed:	48 8b 3d 6c 3e 20 00 	mov    0x203e6c(%rip),%rdi        # 205360 <buf_offset>
    14f4:	e8 c9 0d 00 00       	callq  22c2 <stable_launch>
    14f9:	b8 00 00 00 00       	mov    $0x0,%eax
    14fe:	5b                   	pop    %rbx
    14ff:	5d                   	pop    %rbp
    1500:	41 5c                	pop    %r12
    1502:	41 5d                	pop    %r13
    1504:	41 5e                	pop    %r14
    1506:	c3                   	retq   
    1507:	44 89 f2             	mov    %r14d,%edx
    150a:	48 8d 35 17 1e 00 00 	lea    0x1e17(%rip),%rsi        # 3328 <_IO_stdin_used+0x188>
    1511:	bf 01 00 00 00       	mov    $0x1,%edi
    1516:	b8 00 00 00 00       	mov    $0x0,%eax
    151b:	e8 40 fa ff ff       	callq  f60 <__printf_chk@plt>
    1520:	b8 00 00 00 00       	mov    $0x0,%eax
    1525:	e8 f0 07 00 00       	callq  1d1a <check_fail>
    152a:	eb a5                	jmp    14d1 <main+0x190>

000000000000152c <scramble>:
    152c:	48 83 ec 38          	sub    $0x38,%rsp
    1530:	64 48 8b 04 25 28 00 	mov    %fs:0x28,%rax
    1537:	00 00 
    1539:	48 89 44 24 28       	mov    %rax,0x28(%rsp)
    153e:	31 c0                	xor    %eax,%eax
    1540:	eb 10                	jmp    1552 <scramble+0x26>
    1542:	69 d0 a0 3a 00 00    	imul   $0x3aa0,%eax,%edx
    1548:	01 fa                	add    %edi,%edx
    154a:	89 c1                	mov    %eax,%ecx
    154c:	89 14 8c             	mov    %edx,(%rsp,%rcx,4)
    154f:	83 c0 01             	add    $0x1,%eax
    1552:	83 f8 09             	cmp    $0x9,%eax
    1555:	76 eb                	jbe    1542 <scramble+0x16>
    1557:	8b 44 24 14          	mov    0x14(%rsp),%eax
    155b:	69 c0 c5 23 00 00    	imul   $0x23c5,%eax,%eax
    1561:	89 44 24 14          	mov    %eax,0x14(%rsp)
    1565:	8b 44 24 1c          	mov    0x1c(%rsp),%eax
    1569:	69 c0 80 41 00 00    	imul   $0x4180,%eax,%eax
    156f:	89 44 24 1c          	mov    %eax,0x1c(%rsp)
    1573:	8b 44 24 08          	mov    0x8(%rsp),%eax
    1577:	69 c0 84 65 00 00    	imul   $0x6584,%eax,%eax
    157d:	89 44 24 08          	mov    %eax,0x8(%rsp)
    1581:	8b 44 24 08          	mov    0x8(%rsp),%eax
    1585:	69 c0 bd a5 00 00    	imul   $0xa5bd,%eax,%eax
    158b:	89 44 24 08          	mov    %eax,0x8(%rsp)
    158f:	8b 44 24 18          	mov    0x18(%rsp),%eax
    1593:	69 c0 0d 58 00 00    	imul   $0x580d,%eax,%eax
    1599:	89 44 24 18          	mov    %eax,0x18(%rsp)
    159d:	8b 04 24             	mov    (%rsp),%eax
    15a0:	69 c0 03 58 00 00    	imul   $0x5803,%eax,%eax
    15a6:	89 04 24             	mov    %eax,(%rsp)
    15a9:	8b 44 24 14          	mov    0x14(%rsp),%eax
    15ad:	69 c0 6f 76 00 00    	imul   $0x766f,%eax,%eax
    15b3:	89 44 24 14          	mov    %eax,0x14(%rsp)
    15b7:	8b 44 24 04          	mov    0x4(%rsp),%eax
    15bb:	69 c0 5e e0 00 00    	imul   $0xe05e,%eax,%eax
    15c1:	89 44 24 04          	mov    %eax,0x4(%rsp)
    15c5:	8b 44 24 08          	mov    0x8(%rsp),%eax
    15c9:	69 c0 88 84 00 00    	imul   $0x8488,%eax,%eax
    15cf:	89 44 24 08          	mov    %eax,0x8(%rsp)
    15d3:	8b 44 24 10          	mov    0x10(%rsp),%eax
    15d7:	69 c0 de 93 00 00    	imul   $0x93de,%eax,%eax
    15dd:	89 44 24 10          	mov    %eax,0x10(%rsp)
    15e1:	8b 44 24 24          	mov    0x24(%rsp),%eax
    15e5:	69 c0 22 05 00 00    	imul   $0x522,%eax,%eax
    15eb:	89 44 24 24          	mov    %eax,0x24(%rsp)
    15ef:	8b 04 24             	mov    (%rsp),%eax
    15f2:	69 c0 4c 0d 00 00    	imul   $0xd4c,%eax,%eax
    15f8:	89 04 24             	mov    %eax,(%rsp)
    15fb:	8b 44 24 1c          	mov    0x1c(%rsp),%eax
    15ff:	69 c0 64 5b 00 00    	imul   $0x5b64,%eax,%eax
    1605:	89 44 24 1c          	mov    %eax,0x1c(%rsp)
    1609:	8b 44 24 24          	mov    0x24(%rsp),%eax
    160d:	69 c0 18 62 00 00    	imul   $0x6218,%eax,%eax
    1613:	89 44 24 24          	mov    %eax,0x24(%rsp)
    1617:	8b 44 24 18          	mov    0x18(%rsp),%eax
    161b:	69 c0 52 8b 00 00    	imul   $0x8b52,%eax,%eax
    1621:	89 44 24 18          	mov    %eax,0x18(%rsp)
    1625:	8b 44 24 0c          	mov    0xc(%rsp),%eax
    1629:	69 c0 e4 a2 00 00    	imul   $0xa2e4,%eax,%eax
    162f:	89 44 24 0c          	mov    %eax,0xc(%rsp)
    1633:	8b 44 24 20          	mov    0x20(%rsp),%eax
    1637:	69 c0 0b 76 00 00    	imul   $0x760b,%eax,%eax
    163d:	89 44 24 20          	mov    %eax,0x20(%rsp)
    1641:	8b 44 24 14          	mov    0x14(%rsp),%eax
    1645:	69 c0 1a 4f 00 00    	imul   $0x4f1a,%eax,%eax
    164b:	89 44 24 14          	mov    %eax,0x14(%rsp)
    164f:	8b 44 24 14          	mov    0x14(%rsp),%eax
    1653:	69 c0 0c 74 00 00    	imul   $0x740c,%eax,%eax
    1659:	89 44 24 14          	mov    %eax,0x14(%rsp)
    165d:	8b 44 24 18          	mov    0x18(%rsp),%eax
    1661:	69 c0 9c fd 00 00    	imul   $0xfd9c,%eax,%eax
    1667:	89 44 24 18          	mov    %eax,0x18(%rsp)
    166b:	8b 44 24 0c          	mov    0xc(%rsp),%eax
    166f:	69 c0 3d 4b 00 00    	imul   $0x4b3d,%eax,%eax
    1675:	89 44 24 0c          	mov    %eax,0xc(%rsp)
    1679:	8b 04 24             	mov    (%rsp),%eax
    167c:	69 c0 c6 6f 00 00    	imul   $0x6fc6,%eax,%eax
    1682:	89 04 24             	mov    %eax,(%rsp)
    1685:	8b 44 24 08          	mov    0x8(%rsp),%eax
    1689:	69 c0 4c 52 00 00    	imul   $0x524c,%eax,%eax
    168f:	89 44 24 08          	mov    %eax,0x8(%rsp)
    1693:	8b 44 24 20          	mov    0x20(%rsp),%eax
    1697:	69 c0 59 dd 00 00    	imul   $0xdd59,%eax,%eax
    169d:	89 44 24 20          	mov    %eax,0x20(%rsp)
    16a1:	8b 44 24 1c          	mov    0x1c(%rsp),%eax
    16a5:	69 c0 0c 5e 00 00    	imul   $0x5e0c,%eax,%eax
    16ab:	89 44 24 1c          	mov    %eax,0x1c(%rsp)
    16af:	8b 44 24 18          	mov    0x18(%rsp),%eax
    16b3:	69 c0 d8 86 00 00    	imul   $0x86d8,%eax,%eax
    16b9:	89 44 24 18          	mov    %eax,0x18(%rsp)
    16bd:	8b 44 24 20          	mov    0x20(%rsp),%eax
    16c1:	69 c0 94 ab 00 00    	imul   $0xab94,%eax,%eax
    16c7:	89 44 24 20          	mov    %eax,0x20(%rsp)
    16cb:	8b 44 24 08          	mov    0x8(%rsp),%eax
    16cf:	69 c0 37 09 00 00    	imul   $0x937,%eax,%eax
    16d5:	89 44 24 08          	mov    %eax,0x8(%rsp)
    16d9:	8b 44 24 24          	mov    0x24(%rsp),%eax
    16dd:	69 c0 23 0e 00 00    	imul   $0xe23,%eax,%eax
    16e3:	89 44 24 24          	mov    %eax,0x24(%rsp)
    16e7:	8b 44 24 1c          	mov    0x1c(%rsp),%eax
    16eb:	69 c0 3c 6f 00 00    	imul   $0x6f3c,%eax,%eax
    16f1:	89 44 24 1c          	mov    %eax,0x1c(%rsp)
    16f5:	8b 44 24 10          	mov    0x10(%rsp),%eax
    16f9:	69 c0 a1 a6 00 00    	imul   $0xa6a1,%eax,%eax
    16ff:	89 44 24 10          	mov    %eax,0x10(%rsp)
    1703:	8b 44 24 04          	mov    0x4(%rsp),%eax
    1707:	69 c0 8c 48 00 00    	imul   $0x488c,%eax,%eax
    170d:	89 44 24 04          	mov    %eax,0x4(%rsp)
    1711:	8b 44 24 08          	mov    0x8(%rsp),%eax
    1715:	69 c0 84 f6 00 00    	imul   $0xf684,%eax,%eax
    171b:	89 44 24 08          	mov    %eax,0x8(%rsp)
    171f:	8b 44 24 10          	mov    0x10(%rsp),%eax
    1723:	69 c0 3c f8 00 00    	imul   $0xf83c,%eax,%eax
    1729:	89 44 24 10          	mov    %eax,0x10(%rsp)
    172d:	8b 44 24 18          	mov    0x18(%rsp),%eax
    1731:	69 c0 7d 8c 00 00    	imul   $0x8c7d,%eax,%eax
    1737:	89 44 24 18          	mov    %eax,0x18(%rsp)
    173b:	8b 04 24             	mov    (%rsp),%eax
    173e:	69 c0 aa 36 00 00    	imul   $0x36aa,%eax,%eax
    1744:	89 04 24             	mov    %eax,(%rsp)
    1747:	8b 44 24 04          	mov    0x4(%rsp),%eax
    174b:	69 c0 77 4b 00 00    	imul   $0x4b77,%eax,%eax
    1751:	89 44 24 04          	mov    %eax,0x4(%rsp)
    1755:	8b 44 24 0c          	mov    0xc(%rsp),%eax
    1759:	69 c0 67 99 00 00    	imul   $0x9967,%eax,%eax
    175f:	89 44 24 0c          	mov    %eax,0xc(%rsp)
    1763:	8b 44 24 18          	mov    0x18(%rsp),%eax
    1767:	69 c0 95 f6 00 00    	imul   $0xf695,%eax,%eax
    176d:	89 44 24 18          	mov    %eax,0x18(%rsp)
    1771:	8b 04 24             	mov    (%rsp),%eax
    1774:	69 c0 97 74 00 00    	imul   $0x7497,%eax,%eax
    177a:	89 04 24             	mov    %eax,(%rsp)
    177d:	8b 44 24 1c          	mov    0x1c(%rsp),%eax
    1781:	69 c0 f8 e7 00 00    	imul   $0xe7f8,%eax,%eax
    1787:	89 44 24 1c          	mov    %eax,0x1c(%rsp)
    178b:	8b 04 24             	mov    (%rsp),%eax
    178e:	69 c0 d0 b7 00 00    	imul   $0xb7d0,%eax,%eax
    1794:	89 04 24             	mov    %eax,(%rsp)
    1797:	8b 44 24 1c          	mov    0x1c(%rsp),%eax
    179b:	69 c0 94 8f 00 00    	imul   $0x8f94,%eax,%eax
    17a1:	89 44 24 1c          	mov    %eax,0x1c(%rsp)
    17a5:	8b 44 24 0c          	mov    0xc(%rsp),%eax
    17a9:	69 c0 85 9a 00 00    	imul   $0x9a85,%eax,%eax
    17af:	89 44 24 0c          	mov    %eax,0xc(%rsp)
    17b3:	8b 44 24 24          	mov    0x24(%rsp),%eax
    17b7:	69 c0 57 2c 00 00    	imul   $0x2c57,%eax,%eax
    17bd:	89 44 24 24          	mov    %eax,0x24(%rsp)
    17c1:	8b 44 24 10          	mov    0x10(%rsp),%eax
    17c5:	69 c0 2d 37 00 00    	imul   $0x372d,%eax,%eax
    17cb:	89 44 24 10          	mov    %eax,0x10(%rsp)
    17cf:	8b 44 24 14          	mov    0x14(%rsp),%eax
    17d3:	69 c0 e1 1b 00 00    	imul   $0x1be1,%eax,%eax
    17d9:	89 44 24 14          	mov    %eax,0x14(%rsp)
    17dd:	8b 44 24 24          	mov    0x24(%rsp),%eax
    17e1:	69 c0 a5 ef 00 00    	imul   $0xefa5,%eax,%eax
    17e7:	89 44 24 24          	mov    %eax,0x24(%rsp)
    17eb:	8b 44 24 18          	mov    0x18(%rsp),%eax
    17ef:	69 c0 60 17 00 00    	imul   $0x1760,%eax,%eax
    17f5:	89 44 24 18          	mov    %eax,0x18(%rsp)
    17f9:	8b 44 24 1c          	mov    0x1c(%rsp),%eax
    17fd:	69 c0 f5 7c 00 00    	imul   $0x7cf5,%eax,%eax
    1803:	89 44 24 1c          	mov    %eax,0x1c(%rsp)
    1807:	8b 04 24             	mov    (%rsp),%eax
    180a:	69 c0 ba dd 00 00    	imul   $0xddba,%eax,%eax
    1810:	89 04 24             	mov    %eax,(%rsp)
    1813:	8b 44 24 18          	mov    0x18(%rsp),%eax
    1817:	69 c0 98 7b 00 00    	imul   $0x7b98,%eax,%eax
    181d:	89 44 24 18          	mov    %eax,0x18(%rsp)
    1821:	8b 44 24 04          	mov    0x4(%rsp),%eax
    1825:	69 c0 11 5a 00 00    	imul   $0x5a11,%eax,%eax
    182b:	89 44 24 04          	mov    %eax,0x4(%rsp)
    182f:	8b 44 24 20          	mov    0x20(%rsp),%eax
    1833:	69 c0 f5 c6 00 00    	imul   $0xc6f5,%eax,%eax
    1839:	89 44 24 20          	mov    %eax,0x20(%rsp)
    183d:	8b 44 24 0c          	mov    0xc(%rsp),%eax
    1841:	69 c0 bf 8b 00 00    	imul   $0x8bbf,%eax,%eax
    1847:	89 44 24 0c          	mov    %eax,0xc(%rsp)
    184b:	8b 44 24 0c          	mov    0xc(%rsp),%eax
    184f:	69 c0 48 a5 00 00    	imul   $0xa548,%eax,%eax
    1855:	89 44 24 0c          	mov    %eax,0xc(%rsp)
    1859:	8b 44 24 24          	mov    0x24(%rsp),%eax
    185d:	69 c0 fc 36 00 00    	imul   $0x36fc,%eax,%eax
    1863:	89 44 24 24          	mov    %eax,0x24(%rsp)
    1867:	8b 44 24 20          	mov    0x20(%rsp),%eax
    186b:	69 c0 44 07 00 00    	imul   $0x744,%eax,%eax
    1871:	89 44 24 20          	mov    %eax,0x20(%rsp)
    1875:	8b 44 24 04          	mov    0x4(%rsp),%eax
    1879:	69 c0 20 1e 00 00    	imul   $0x1e20,%eax,%eax
    187f:	89 44 24 04          	mov    %eax,0x4(%rsp)
    1883:	8b 44 24 1c          	mov    0x1c(%rsp),%eax
    1887:	69 c0 48 64 00 00    	imul   $0x6448,%eax,%eax
    188d:	89 44 24 1c          	mov    %eax,0x1c(%rsp)
    1891:	8b 44 24 1c          	mov    0x1c(%rsp),%eax
    1895:	69 c0 8a ab 00 00    	imul   $0xab8a,%eax,%eax
    189b:	89 44 24 1c          	mov    %eax,0x1c(%rsp)
    189f:	8b 44 24 24          	mov    0x24(%rsp),%eax
    18a3:	69 c0 70 1d 00 00    	imul   $0x1d70,%eax,%eax
    18a9:	89 44 24 24          	mov    %eax,0x24(%rsp)
    18ad:	8b 44 24 0c          	mov    0xc(%rsp),%eax
    18b1:	69 c0 2e 1b 00 00    	imul   $0x1b2e,%eax,%eax
    18b7:	89 44 24 0c          	mov    %eax,0xc(%rsp)
    18bb:	8b 44 24 08          	mov    0x8(%rsp),%eax
    18bf:	69 c0 d0 d9 00 00    	imul   $0xd9d0,%eax,%eax
    18c5:	89 44 24 08          	mov    %eax,0x8(%rsp)
    18c9:	8b 44 24 14          	mov    0x14(%rsp),%eax
    18cd:	69 c0 f7 f4 00 00    	imul   $0xf4f7,%eax,%eax
    18d3:	89 44 24 14          	mov    %eax,0x14(%rsp)
    18d7:	8b 44 24 10          	mov    0x10(%rsp),%eax
    18db:	69 c0 6c d6 00 00    	imul   $0xd66c,%eax,%eax
    18e1:	89 44 24 10          	mov    %eax,0x10(%rsp)
    18e5:	8b 04 24             	mov    (%rsp),%eax
    18e8:	69 c0 65 0a 00 00    	imul   $0xa65,%eax,%eax
    18ee:	89 04 24             	mov    %eax,(%rsp)
    18f1:	8b 44 24 20          	mov    0x20(%rsp),%eax
    18f5:	69 c0 e4 fb 00 00    	imul   $0xfbe4,%eax,%eax
    18fb:	89 44 24 20          	mov    %eax,0x20(%rsp)
    18ff:	8b 44 24 0c          	mov    0xc(%rsp),%eax
    1903:	69 c0 03 67 00 00    	imul   $0x6703,%eax,%eax
    1909:	89 44 24 0c          	mov    %eax,0xc(%rsp)
    190d:	8b 44 24 08          	mov    0x8(%rsp),%eax
    1911:	69 c0 1d b5 00 00    	imul   $0xb51d,%eax,%eax
    1917:	89 44 24 08          	mov    %eax,0x8(%rsp)
    191b:	8b 44 24 24          	mov    0x24(%rsp),%eax
    191f:	69 c0 66 fe 00 00    	imul   $0xfe66,%eax,%eax
    1925:	89 44 24 24          	mov    %eax,0x24(%rsp)
    1929:	8b 44 24 04          	mov    0x4(%rsp),%eax
    192d:	69 c0 7a 66 00 00    	imul   $0x667a,%eax,%eax
    1933:	89 44 24 04          	mov    %eax,0x4(%rsp)
    1937:	8b 44 24 08          	mov    0x8(%rsp),%eax
    193b:	69 c0 7e b7 00 00    	imul   $0xb77e,%eax,%eax
    1941:	89 44 24 08          	mov    %eax,0x8(%rsp)
    1945:	8b 44 24 24          	mov    0x24(%rsp),%eax
    1949:	69 c0 f3 fb 00 00    	imul   $0xfbf3,%eax,%eax
    194f:	89 44 24 24          	mov    %eax,0x24(%rsp)
    1953:	8b 44 24 0c          	mov    0xc(%rsp),%eax
    1957:	69 c0 87 0f 00 00    	imul   $0xf87,%eax,%eax
    195d:	89 44 24 0c          	mov    %eax,0xc(%rsp)
    1961:	8b 44 24 1c          	mov    0x1c(%rsp),%eax
    1965:	69 c0 16 20 00 00    	imul   $0x2016,%eax,%eax
    196b:	89 44 24 1c          	mov    %eax,0x1c(%rsp)
    196f:	8b 44 24 08          	mov    0x8(%rsp),%eax
    1973:	69 c0 b0 fb 00 00    	imul   $0xfbb0,%eax,%eax
    1979:	89 44 24 08          	mov    %eax,0x8(%rsp)
    197d:	8b 44 24 1c          	mov    0x1c(%rsp),%eax
    1981:	69 c0 7c 82 00 00    	imul   $0x827c,%eax,%eax
    1987:	89 44 24 1c          	mov    %eax,0x1c(%rsp)
    198b:	8b 44 24 18          	mov    0x18(%rsp),%eax
    198f:	69 c0 9c 4a 00 00    	imul   $0x4a9c,%eax,%eax
    1995:	89 44 24 18          	mov    %eax,0x18(%rsp)
    1999:	8b 44 24 1c          	mov    0x1c(%rsp),%eax
    199d:	69 c0 6d 49 00 00    	imul   $0x496d,%eax,%eax
    19a3:	89 44 24 1c          	mov    %eax,0x1c(%rsp)
    19a7:	8b 44 24 24          	mov    0x24(%rsp),%eax
    19ab:	69 c0 11 b3 00 00    	imul   $0xb311,%eax,%eax
    19b1:	89 44 24 24          	mov    %eax,0x24(%rsp)
    19b5:	8b 44 24 04          	mov    0x4(%rsp),%eax
    19b9:	69 c0 45 12 00 00    	imul   $0x1245,%eax,%eax
    19bf:	89 44 24 04          	mov    %eax,0x4(%rsp)
    19c3:	8b 44 24 1c          	mov    0x1c(%rsp),%eax
    19c7:	69 c0 dd 71 00 00    	imul   $0x71dd,%eax,%eax
    19cd:	89 44 24 1c          	mov    %eax,0x1c(%rsp)
    19d1:	8b 44 24 08          	mov    0x8(%rsp),%eax
    19d5:	69 c0 ed 21 00 00    	imul   $0x21ed,%eax,%eax
    19db:	89 44 24 08          	mov    %eax,0x8(%rsp)
    19df:	8b 04 24             	mov    (%rsp),%eax
    19e2:	69 c0 03 d1 00 00    	imul   $0xd103,%eax,%eax
    19e8:	89 04 24             	mov    %eax,(%rsp)
    19eb:	8b 44 24 04          	mov    0x4(%rsp),%eax
    19ef:	69 c0 a3 cb 00 00    	imul   $0xcba3,%eax,%eax
    19f5:	89 44 24 04          	mov    %eax,0x4(%rsp)
    19f9:	8b 44 24 04          	mov    0x4(%rsp),%eax
    19fd:	69 c0 70 31 00 00    	imul   $0x3170,%eax,%eax
    1a03:	89 44 24 04          	mov    %eax,0x4(%rsp)
    1a07:	8b 04 24             	mov    (%rsp),%eax
    1a0a:	69 c0 cc 04 00 00    	imul   $0x4cc,%eax,%eax
    1a10:	89 04 24             	mov    %eax,(%rsp)
    1a13:	8b 44 24 10          	mov    0x10(%rsp),%eax
    1a17:	69 c0 db 9f 00 00    	imul   $0x9fdb,%eax,%eax
    1a1d:	89 44 24 10          	mov    %eax,0x10(%rsp)
    1a21:	8b 04 24             	mov    (%rsp),%eax
    1a24:	69 c0 8d be 00 00    	imul   $0xbe8d,%eax,%eax
    1a2a:	89 04 24             	mov    %eax,(%rsp)
    1a2d:	8b 04 24             	mov    (%rsp),%eax
    1a30:	69 c0 fb 60 00 00    	imul   $0x60fb,%eax,%eax
    1a36:	89 04 24             	mov    %eax,(%rsp)
    1a39:	8b 44 24 10          	mov    0x10(%rsp),%eax
    1a3d:	69 c0 73 6a 00 00    	imul   $0x6a73,%eax,%eax
    1a43:	89 44 24 10          	mov    %eax,0x10(%rsp)
    1a47:	8b 44 24 14          	mov    0x14(%rsp),%eax
    1a4b:	69 c0 2a 1c 00 00    	imul   $0x1c2a,%eax,%eax
    1a51:	89 44 24 14          	mov    %eax,0x14(%rsp)
    1a55:	8b 44 24 08          	mov    0x8(%rsp),%eax
    1a59:	69 c0 8b 73 00 00    	imul   $0x738b,%eax,%eax
    1a5f:	89 44 24 08          	mov    %eax,0x8(%rsp)
    1a63:	8b 04 24             	mov    (%rsp),%eax
    1a66:	69 c0 3b 49 00 00    	imul   $0x493b,%eax,%eax
    1a6c:	89 04 24             	mov    %eax,(%rsp)
    1a6f:	8b 44 24 18          	mov    0x18(%rsp),%eax
    1a73:	69 c0 5a a6 00 00    	imul   $0xa65a,%eax,%eax
    1a79:	89 44 24 18          	mov    %eax,0x18(%rsp)
    1a7d:	ba 00 00 00 00       	mov    $0x0,%edx
    1a82:	b8 00 00 00 00       	mov    $0x0,%eax
    1a87:	eb 0a                	jmp    1a93 <scramble+0x567>
    1a89:	89 d1                	mov    %edx,%ecx
    1a8b:	8b 0c 8c             	mov    (%rsp,%rcx,4),%ecx
    1a8e:	01 c8                	add    %ecx,%eax
    1a90:	83 c2 01             	add    $0x1,%edx
    1a93:	83 fa 09             	cmp    $0x9,%edx
    1a96:	76 f1                	jbe    1a89 <scramble+0x55d>
    1a98:	48 8b 74 24 28       	mov    0x28(%rsp),%rsi
    1a9d:	64 48 33 34 25 28 00 	xor    %fs:0x28,%rsi
    1aa4:	00 00 
    1aa6:	75 05                	jne    1aad <scramble+0x581>
    1aa8:	48 83 c4 38          	add    $0x38,%rsp
    1aac:	c3                   	retq   
    1aad:	e8 ae f3 ff ff       	callq  e60 <__stack_chk_fail@plt>

0000000000001ab2 <getbuf>:
    1ab2:	48 83 ec 38          	sub    $0x38,%rsp
    1ab6:	48 89 e7             	mov    %rsp,%rdi
    1ab9:	e8 94 02 00 00       	callq  1d52 <Gets>
    1abe:	b8 01 00 00 00       	mov    $0x1,%eax
    1ac3:	48 83 c4 38          	add    $0x38,%rsp
    1ac7:	c3                   	retq   

0000000000001ac8 <touch1>:
    1ac8:	48 83 ec 08          	sub    $0x8,%rsp
    1acc:	c7 05 06 39 20 00 01 	movl   $0x1,0x203906(%rip)        # 2053dc <vlevel>
    1ad3:	00 00 00 
    1ad6:	48 8d 3d 9c 19 00 00 	lea    0x199c(%rip),%rdi        # 3479 <_IO_stdin_used+0x2d9>
    1add:	e8 5e f3 ff ff       	callq  e40 <puts@plt>
    1ae2:	bf 01 00 00 00       	mov    $0x1,%edi
    1ae7:	e8 d6 04 00 00       	callq  1fc2 <validate>
    1aec:	bf 00 00 00 00       	mov    $0x0,%edi
    1af1:	e8 ba f4 ff ff       	callq  fb0 <exit@plt>

0000000000001af6 <touch2>:
    1af6:	48 83 ec 08          	sub    $0x8,%rsp
    1afa:	89 fa                	mov    %edi,%edx
    1afc:	c7 05 d6 38 20 00 02 	movl   $0x2,0x2038d6(%rip)        # 2053dc <vlevel>
    1b03:	00 00 00 
    1b06:	39 3d d8 38 20 00    	cmp    %edi,0x2038d8(%rip)        # 2053e4 <cookie>
    1b0c:	74 2a                	je     1b38 <touch2+0x42>
    1b0e:	48 8d 35 b3 19 00 00 	lea    0x19b3(%rip),%rsi        # 34c8 <_IO_stdin_used+0x328>
    1b15:	bf 01 00 00 00       	mov    $0x1,%edi
    1b1a:	b8 00 00 00 00       	mov    $0x0,%eax
    1b1f:	e8 3c f4 ff ff       	callq  f60 <__printf_chk@plt>
    1b24:	bf 02 00 00 00       	mov    $0x2,%edi
    1b29:	e8 64 05 00 00       	callq  2092 <fail>
    1b2e:	bf 00 00 00 00       	mov    $0x0,%edi
    1b33:	e8 78 f4 ff ff       	callq  fb0 <exit@plt>
    1b38:	48 8d 35 61 19 00 00 	lea    0x1961(%rip),%rsi        # 34a0 <_IO_stdin_used+0x300>
    1b3f:	bf 01 00 00 00       	mov    $0x1,%edi
    1b44:	b8 00 00 00 00       	mov    $0x0,%eax
    1b49:	e8 12 f4 ff ff       	callq  f60 <__printf_chk@plt>
    1b4e:	bf 02 00 00 00       	mov    $0x2,%edi
    1b53:	e8 6a 04 00 00       	callq  1fc2 <validate>
    1b58:	eb d4                	jmp    1b2e <touch2+0x38>

0000000000001b5a <hexmatch>:
    1b5a:	41 54                	push   %r12
    1b5c:	55                   	push   %rbp
    1b5d:	53                   	push   %rbx
    1b5e:	48 83 c4 80          	add    $0xffffffffffffff80,%rsp
    1b62:	89 fd                	mov    %edi,%ebp
    1b64:	48 89 f3             	mov    %rsi,%rbx
    1b67:	64 48 8b 04 25 28 00 	mov    %fs:0x28,%rax
    1b6e:	00 00 
    1b70:	48 89 44 24 78       	mov    %rax,0x78(%rsp)
    1b75:	31 c0                	xor    %eax,%eax
    1b77:	e8 a4 f3 ff ff       	callq  f20 <random@plt>
    1b7c:	48 89 c1             	mov    %rax,%rcx
    1b7f:	48 ba 0b d7 a3 70 3d 	movabs $0xa3d70a3d70a3d70b,%rdx
    1b86:	0a d7 a3 
    1b89:	48 f7 ea             	imul   %rdx
    1b8c:	48 01 ca             	add    %rcx,%rdx
    1b8f:	48 c1 fa 06          	sar    $0x6,%rdx
    1b93:	48 89 c8             	mov    %rcx,%rax
    1b96:	48 c1 f8 3f          	sar    $0x3f,%rax
    1b9a:	48 29 c2             	sub    %rax,%rdx
    1b9d:	48 8d 04 92          	lea    (%rdx,%rdx,4),%rax
    1ba1:	48 8d 14 80          	lea    (%rax,%rax,4),%rdx
    1ba5:	48 8d 04 95 00 00 00 	lea    0x0(,%rdx,4),%rax
    1bac:	00 
    1bad:	48 29 c1             	sub    %rax,%rcx
    1bb0:	4c 8d 24 0c          	lea    (%rsp,%rcx,1),%r12
    1bb4:	41 89 e8             	mov    %ebp,%r8d
    1bb7:	48 8d 0d d8 18 00 00 	lea    0x18d8(%rip),%rcx        # 3496 <_IO_stdin_used+0x2f6>
    1bbe:	48 c7 c2 ff ff ff ff 	mov    $0xffffffffffffffff,%rdx
    1bc5:	be 01 00 00 00       	mov    $0x1,%esi
    1bca:	4c 89 e7             	mov    %r12,%rdi
    1bcd:	b8 00 00 00 00       	mov    $0x0,%eax
    1bd2:	e8 09 f4 ff ff       	callq  fe0 <__sprintf_chk@plt>
    1bd7:	ba 09 00 00 00       	mov    $0x9,%edx
    1bdc:	4c 89 e6             	mov    %r12,%rsi
    1bdf:	48 89 df             	mov    %rbx,%rdi
    1be2:	e8 39 f2 ff ff       	callq  e20 <strncmp@plt>
    1be7:	85 c0                	test   %eax,%eax
    1be9:	0f 94 c0             	sete   %al
    1bec:	48 8b 5c 24 78       	mov    0x78(%rsp),%rbx
    1bf1:	64 48 33 1c 25 28 00 	xor    %fs:0x28,%rbx
    1bf8:	00 00 
    1bfa:	75 0c                	jne    1c08 <hexmatch+0xae>
    1bfc:	0f b6 c0             	movzbl %al,%eax
    1bff:	48 83 ec 80          	sub    $0xffffffffffffff80,%rsp
    1c03:	5b                   	pop    %rbx
    1c04:	5d                   	pop    %rbp
    1c05:	41 5c                	pop    %r12
    1c07:	c3                   	retq   
    1c08:	e8 53 f2 ff ff       	callq  e60 <__stack_chk_fail@plt>

0000000000001c0d <touch3>:
    1c0d:	53                   	push   %rbx
    1c0e:	48 89 fb             	mov    %rdi,%rbx
    1c11:	c7 05 c1 37 20 00 03 	movl   $0x3,0x2037c1(%rip)        # 2053dc <vlevel>
    1c18:	00 00 00 
    1c1b:	48 89 fe             	mov    %rdi,%rsi
    1c1e:	8b 3d c0 37 20 00    	mov    0x2037c0(%rip),%edi        # 2053e4 <cookie>
    1c24:	e8 31 ff ff ff       	callq  1b5a <hexmatch>
    1c29:	85 c0                	test   %eax,%eax
    1c2b:	74 2d                	je     1c5a <touch3+0x4d>
    1c2d:	48 89 da             	mov    %rbx,%rdx
    1c30:	48 8d 35 b9 18 00 00 	lea    0x18b9(%rip),%rsi        # 34f0 <_IO_stdin_used+0x350>
    1c37:	bf 01 00 00 00       	mov    $0x1,%edi
    1c3c:	b8 00 00 00 00       	mov    $0x0,%eax
    1c41:	e8 1a f3 ff ff       	callq  f60 <__printf_chk@plt>
    1c46:	bf 03 00 00 00       	mov    $0x3,%edi
    1c4b:	e8 72 03 00 00       	callq  1fc2 <validate>
    1c50:	bf 00 00 00 00       	mov    $0x0,%edi
    1c55:	e8 56 f3 ff ff       	callq  fb0 <exit@plt>
    1c5a:	48 89 da             	mov    %rbx,%rdx
    1c5d:	48 8d 35 b4 18 00 00 	lea    0x18b4(%rip),%rsi        # 3518 <_IO_stdin_used+0x378>
    1c64:	bf 01 00 00 00       	mov    $0x1,%edi
    1c69:	b8 00 00 00 00       	mov    $0x0,%eax
    1c6e:	e8 ed f2 ff ff       	callq  f60 <__printf_chk@plt>
    1c73:	bf 03 00 00 00       	mov    $0x3,%edi
    1c78:	e8 15 04 00 00       	callq  2092 <fail>
    1c7d:	eb d1                	jmp    1c50 <touch3+0x43>

0000000000001c7f <test>:
    1c7f:	48 83 ec 08          	sub    $0x8,%rsp
    1c83:	b8 00 00 00 00       	mov    $0x0,%eax
    1c88:	e8 25 fe ff ff       	callq  1ab2 <getbuf>
    1c8d:	89 c2                	mov    %eax,%edx
    1c8f:	48 8d 35 aa 18 00 00 	lea    0x18aa(%rip),%rsi        # 3540 <_IO_stdin_used+0x3a0>
    1c96:	bf 01 00 00 00       	mov    $0x1,%edi
    1c9b:	b8 00 00 00 00       	mov    $0x0,%eax
    1ca0:	e8 bb f2 ff ff       	callq  f60 <__printf_chk@plt>
    1ca5:	48 83 c4 08          	add    $0x8,%rsp
    1ca9:	c3                   	retq   

0000000000001caa <save_char>:
    1caa:	8b 05 54 43 20 00    	mov    0x204354(%rip),%eax        # 206004 <gets_cnt>
    1cb0:	3d ff 03 00 00       	cmp    $0x3ff,%eax
    1cb5:	7f 4a                	jg     1d01 <save_char+0x57>
    1cb7:	89 f9                	mov    %edi,%ecx
    1cb9:	c0 e9 04             	shr    $0x4,%cl
    1cbc:	8d 14 40             	lea    (%rax,%rax,2),%edx
    1cbf:	4c 8d 05 9a 1b 00 00 	lea    0x1b9a(%rip),%r8        # 3860 <trans_char>
    1cc6:	83 e1 0f             	and    $0xf,%ecx
    1cc9:	45 0f b6 0c 08       	movzbl (%r8,%rcx,1),%r9d
    1cce:	48 8d 0d 2b 37 20 00 	lea    0x20372b(%rip),%rcx        # 205400 <gets_buf>
    1cd5:	48 63 f2             	movslq %edx,%rsi
    1cd8:	44 88 0c 31          	mov    %r9b,(%rcx,%rsi,1)
    1cdc:	8d 72 01             	lea    0x1(%rdx),%esi
    1cdf:	83 e7 0f             	and    $0xf,%edi
    1ce2:	41 0f b6 3c 38       	movzbl (%r8,%rdi,1),%edi
    1ce7:	48 63 f6             	movslq %esi,%rsi
    1cea:	40 88 3c 31          	mov    %dil,(%rcx,%rsi,1)
    1cee:	83 c2 02             	add    $0x2,%edx
    1cf1:	48 63 d2             	movslq %edx,%rdx
    1cf4:	c6 04 11 20          	movb   $0x20,(%rcx,%rdx,1)
    1cf8:	83 c0 01             	add    $0x1,%eax
    1cfb:	89 05 03 43 20 00    	mov    %eax,0x204303(%rip)        # 206004 <gets_cnt>
    1d01:	f3 c3                	repz retq 

0000000000001d03 <save_term>:
    1d03:	8b 05 fb 42 20 00    	mov    0x2042fb(%rip),%eax        # 206004 <gets_cnt>
    1d09:	8d 04 40             	lea    (%rax,%rax,2),%eax
    1d0c:	48 98                	cltq   
    1d0e:	48 8d 15 eb 36 20 00 	lea    0x2036eb(%rip),%rdx        # 205400 <gets_buf>
    1d15:	c6 04 02 00          	movb   $0x0,(%rdx,%rax,1)
    1d19:	c3                   	retq   

0000000000001d1a <check_fail>:
    1d1a:	48 83 ec 08          	sub    $0x8,%rsp
    1d1e:	0f be 15 e3 42 20 00 	movsbl 0x2042e3(%rip),%edx        # 206008 <target_prefix>
    1d25:	4c 8d 05 d4 36 20 00 	lea    0x2036d4(%rip),%r8        # 205400 <gets_buf>
    1d2c:	8b 0d a6 36 20 00    	mov    0x2036a6(%rip),%ecx        # 2053d8 <check_level>
    1d32:	48 8d 35 2a 18 00 00 	lea    0x182a(%rip),%rsi        # 3563 <_IO_stdin_used+0x3c3>
    1d39:	bf 01 00 00 00       	mov    $0x1,%edi
    1d3e:	b8 00 00 00 00       	mov    $0x0,%eax
    1d43:	e8 18 f2 ff ff       	callq  f60 <__printf_chk@plt>
    1d48:	bf 01 00 00 00       	mov    $0x1,%edi
    1d4d:	e8 5e f2 ff ff       	callq  fb0 <exit@plt>

0000000000001d52 <Gets>:
    1d52:	41 54                	push   %r12
    1d54:	55                   	push   %rbp
    1d55:	53                   	push   %rbx
    1d56:	49 89 fc             	mov    %rdi,%r12
    1d59:	c7 05 a1 42 20 00 00 	movl   $0x0,0x2042a1(%rip)        # 206004 <gets_cnt>
    1d60:	00 00 00 
    1d63:	48 89 fb             	mov    %rdi,%rbx
    1d66:	eb 11                	jmp    1d79 <Gets+0x27>
    1d68:	48 8d 6b 01          	lea    0x1(%rbx),%rbp
    1d6c:	88 03                	mov    %al,(%rbx)
    1d6e:	0f b6 f8             	movzbl %al,%edi
    1d71:	e8 34 ff ff ff       	callq  1caa <save_char>
    1d76:	48 89 eb             	mov    %rbp,%rbx
    1d79:	48 8b 3d 50 36 20 00 	mov    0x203650(%rip),%rdi        # 2053d0 <infile>
    1d80:	e8 ab f1 ff ff       	callq  f30 <_IO_getc@plt>
    1d85:	83 f8 ff             	cmp    $0xffffffff,%eax
    1d88:	74 05                	je     1d8f <Gets+0x3d>
    1d8a:	83 f8 0a             	cmp    $0xa,%eax
    1d8d:	75 d9                	jne    1d68 <Gets+0x16>
    1d8f:	c6 03 00             	movb   $0x0,(%rbx)
    1d92:	b8 00 00 00 00       	mov    $0x0,%eax
    1d97:	e8 67 ff ff ff       	callq  1d03 <save_term>
    1d9c:	4c 89 e0             	mov    %r12,%rax
    1d9f:	5b                   	pop    %rbx
    1da0:	5d                   	pop    %rbp
    1da1:	41 5c                	pop    %r12
    1da3:	c3                   	retq   

0000000000001da4 <notify_server>:
    1da4:	55                   	push   %rbp
    1da5:	53                   	push   %rbx
    1da6:	48 81 ec 18 40 00 00 	sub    $0x4018,%rsp
    1dad:	64 48 8b 04 25 28 00 	mov    %fs:0x28,%rax
    1db4:	00 00 
    1db6:	48 89 84 24 08 40 00 	mov    %rax,0x4008(%rsp)
    1dbd:	00 
    1dbe:	31 c0                	xor    %eax,%eax
    1dc0:	83 3d 21 36 20 00 00 	cmpl   $0x0,0x203621(%rip)        # 2053e8 <is_checker>
    1dc7:	0f 85 d2 00 00 00    	jne    1e9f <notify_server+0xfb>
    1dcd:	89 fb                	mov    %edi,%ebx
    1dcf:	8b 05 2f 42 20 00    	mov    0x20422f(%rip),%eax        # 206004 <gets_cnt>
    1dd5:	83 c0 64             	add    $0x64,%eax
    1dd8:	3d 00 20 00 00       	cmp    $0x2000,%eax
    1ddd:	0f 8f dd 00 00 00    	jg     1ec0 <notify_server+0x11c>
    1de3:	0f be 05 1e 42 20 00 	movsbl 0x20421e(%rip),%eax        # 206008 <target_prefix>
    1dea:	83 3d 77 35 20 00 00 	cmpl   $0x0,0x203577(%rip)        # 205368 <notify>
    1df1:	0f 84 e9 00 00 00    	je     1ee0 <notify_server+0x13c>
    1df7:	8b 15 e3 35 20 00    	mov    0x2035e3(%rip),%edx        # 2053e0 <authkey>
    1dfd:	85 db                	test   %ebx,%ebx
    1dff:	0f 84 e5 00 00 00    	je     1eea <notify_server+0x146>
    1e05:	48 8d 2d 6d 17 00 00 	lea    0x176d(%rip),%rbp        # 3579 <_IO_stdin_used+0x3d9>
    1e0c:	48 89 e7             	mov    %rsp,%rdi
    1e0f:	48 8d 0d ea 35 20 00 	lea    0x2035ea(%rip),%rcx        # 205400 <gets_buf>
    1e16:	51                   	push   %rcx
    1e17:	56                   	push   %rsi
    1e18:	50                   	push   %rax
    1e19:	52                   	push   %rdx
    1e1a:	49 89 e9             	mov    %rbp,%r9
    1e1d:	44 8b 05 ec 31 20 00 	mov    0x2031ec(%rip),%r8d        # 205010 <target_id>
    1e24:	48 8d 0d 58 17 00 00 	lea    0x1758(%rip),%rcx        # 3583 <_IO_stdin_used+0x3e3>
    1e2b:	ba 00 20 00 00       	mov    $0x2000,%edx
    1e30:	be 01 00 00 00       	mov    $0x1,%esi
    1e35:	b8 00 00 00 00       	mov    $0x0,%eax
    1e3a:	e8 a1 f1 ff ff       	callq  fe0 <__sprintf_chk@plt>
    1e3f:	48 83 c4 20          	add    $0x20,%rsp
    1e43:	83 3d 1e 35 20 00 00 	cmpl   $0x0,0x20351e(%rip)        # 205368 <notify>
    1e4a:	0f 84 df 00 00 00    	je     1f2f <notify_server+0x18b>
    1e50:	85 db                	test   %ebx,%ebx
    1e52:	0f 84 c6 00 00 00    	je     1f1e <notify_server+0x17a>
    1e58:	48 89 e1             	mov    %rsp,%rcx
    1e5b:	4c 8d 8c 24 00 20 00 	lea    0x2000(%rsp),%r9
    1e62:	00 
    1e63:	41 b8 00 00 00 00    	mov    $0x0,%r8d
    1e69:	48 8b 15 b8 31 20 00 	mov    0x2031b8(%rip),%rdx        # 205028 <lab>
    1e70:	48 8b 35 b9 31 20 00 	mov    0x2031b9(%rip),%rsi        # 205030 <course>
    1e77:	48 8b 3d a2 31 20 00 	mov    0x2031a2(%rip),%rdi        # 205020 <user_id>
    1e7e:	e8 d7 11 00 00       	callq  305a <driver_post>
    1e83:	85 c0                	test   %eax,%eax
    1e85:	78 6f                	js     1ef6 <notify_server+0x152>
    1e87:	48 8d 3d 3a 18 00 00 	lea    0x183a(%rip),%rdi        # 36c8 <_IO_stdin_used+0x528>
    1e8e:	e8 ad ef ff ff       	callq  e40 <puts@plt>
    1e93:	48 8d 3d 11 17 00 00 	lea    0x1711(%rip),%rdi        # 35ab <_IO_stdin_used+0x40b>
    1e9a:	e8 a1 ef ff ff       	callq  e40 <puts@plt>
    1e9f:	48 8b 84 24 08 40 00 	mov    0x4008(%rsp),%rax
    1ea6:	00 
    1ea7:	64 48 33 04 25 28 00 	xor    %fs:0x28,%rax
    1eae:	00 00 
    1eb0:	0f 85 07 01 00 00    	jne    1fbd <notify_server+0x219>
    1eb6:	48 81 c4 18 40 00 00 	add    $0x4018,%rsp
    1ebd:	5b                   	pop    %rbx
    1ebe:	5d                   	pop    %rbp
    1ebf:	c3                   	retq   
    1ec0:	48 8d 35 d1 17 00 00 	lea    0x17d1(%rip),%rsi        # 3698 <_IO_stdin_used+0x4f8>
    1ec7:	bf 01 00 00 00       	mov    $0x1,%edi
    1ecc:	b8 00 00 00 00       	mov    $0x0,%eax
    1ed1:	e8 8a f0 ff ff       	callq  f60 <__printf_chk@plt>
    1ed6:	bf 01 00 00 00       	mov    $0x1,%edi
    1edb:	e8 d0 f0 ff ff       	callq  fb0 <exit@plt>
    1ee0:	ba ff ff ff ff       	mov    $0xffffffff,%edx
    1ee5:	e9 13 ff ff ff       	jmpq   1dfd <notify_server+0x59>
    1eea:	48 8d 2d 8d 16 00 00 	lea    0x168d(%rip),%rbp        # 357e <_IO_stdin_used+0x3de>
    1ef1:	e9 16 ff ff ff       	jmpq   1e0c <notify_server+0x68>
    1ef6:	48 8d 94 24 00 20 00 	lea    0x2000(%rsp),%rdx
    1efd:	00 
    1efe:	48 8d 35 9a 16 00 00 	lea    0x169a(%rip),%rsi        # 359f <_IO_stdin_used+0x3ff>
    1f05:	bf 01 00 00 00       	mov    $0x1,%edi
    1f0a:	b8 00 00 00 00       	mov    $0x0,%eax
    1f0f:	e8 4c f0 ff ff       	callq  f60 <__printf_chk@plt>
    1f14:	bf 01 00 00 00       	mov    $0x1,%edi
    1f19:	e8 92 f0 ff ff       	callq  fb0 <exit@plt>
    1f1e:	48 8d 3d 90 16 00 00 	lea    0x1690(%rip),%rdi        # 35b5 <_IO_stdin_used+0x415>
    1f25:	e8 16 ef ff ff       	callq  e40 <puts@plt>
    1f2a:	e9 70 ff ff ff       	jmpq   1e9f <notify_server+0xfb>
    1f2f:	48 89 ea             	mov    %rbp,%rdx
    1f32:	48 8d 35 c7 17 00 00 	lea    0x17c7(%rip),%rsi        # 3700 <_IO_stdin_used+0x560>
    1f39:	bf 01 00 00 00       	mov    $0x1,%edi
    1f3e:	b8 00 00 00 00       	mov    $0x0,%eax
    1f43:	e8 18 f0 ff ff       	callq  f60 <__printf_chk@plt>
    1f48:	48 8b 15 d1 30 20 00 	mov    0x2030d1(%rip),%rdx        # 205020 <user_id>
    1f4f:	48 8d 35 66 16 00 00 	lea    0x1666(%rip),%rsi        # 35bc <_IO_stdin_used+0x41c>
    1f56:	bf 01 00 00 00       	mov    $0x1,%edi
    1f5b:	b8 00 00 00 00       	mov    $0x0,%eax
    1f60:	e8 fb ef ff ff       	callq  f60 <__printf_chk@plt>
    1f65:	48 8b 15 c4 30 20 00 	mov    0x2030c4(%rip),%rdx        # 205030 <course>
    1f6c:	48 8d 35 56 16 00 00 	lea    0x1656(%rip),%rsi        # 35c9 <_IO_stdin_used+0x429>
    1f73:	bf 01 00 00 00       	mov    $0x1,%edi
    1f78:	b8 00 00 00 00       	mov    $0x0,%eax
    1f7d:	e8 de ef ff ff       	callq  f60 <__printf_chk@plt>
    1f82:	48 8b 15 9f 30 20 00 	mov    0x20309f(%rip),%rdx        # 205028 <lab>
    1f89:	48 8d 35 45 16 00 00 	lea    0x1645(%rip),%rsi        # 35d5 <_IO_stdin_used+0x435>
    1f90:	bf 01 00 00 00       	mov    $0x1,%edi
    1f95:	b8 00 00 00 00       	mov    $0x0,%eax
    1f9a:	e8 c1 ef ff ff       	callq  f60 <__printf_chk@plt>
    1f9f:	48 89 e2             	mov    %rsp,%rdx
    1fa2:	48 8d 35 35 16 00 00 	lea    0x1635(%rip),%rsi        # 35de <_IO_stdin_used+0x43e>
    1fa9:	bf 01 00 00 00       	mov    $0x1,%edi
    1fae:	b8 00 00 00 00       	mov    $0x0,%eax
    1fb3:	e8 a8 ef ff ff       	callq  f60 <__printf_chk@plt>
    1fb8:	e9 e2 fe ff ff       	jmpq   1e9f <notify_server+0xfb>
    1fbd:	e8 9e ee ff ff       	callq  e60 <__stack_chk_fail@plt>

0000000000001fc2 <validate>:
    1fc2:	53                   	push   %rbx
    1fc3:	89 fb                	mov    %edi,%ebx
    1fc5:	83 3d 1c 34 20 00 00 	cmpl   $0x0,0x20341c(%rip)        # 2053e8 <is_checker>
    1fcc:	74 72                	je     2040 <validate+0x7e>
    1fce:	39 3d 08 34 20 00    	cmp    %edi,0x203408(%rip)        # 2053dc <vlevel>
    1fd4:	75 32                	jne    2008 <validate+0x46>
    1fd6:	8b 15 fc 33 20 00    	mov    0x2033fc(%rip),%edx        # 2053d8 <check_level>
    1fdc:	39 fa                	cmp    %edi,%edx
    1fde:	75 3e                	jne    201e <validate+0x5c>
    1fe0:	0f be 15 21 40 20 00 	movsbl 0x204021(%rip),%edx        # 206008 <target_prefix>
    1fe7:	4c 8d 05 12 34 20 00 	lea    0x203412(%rip),%r8        # 205400 <gets_buf>
    1fee:	89 f9                	mov    %edi,%ecx
    1ff0:	48 8d 35 11 16 00 00 	lea    0x1611(%rip),%rsi        # 3608 <_IO_stdin_used+0x468>
    1ff7:	bf 01 00 00 00       	mov    $0x1,%edi
    1ffc:	b8 00 00 00 00       	mov    $0x0,%eax
    2001:	e8 5a ef ff ff       	callq  f60 <__printf_chk@plt>
    2006:	5b                   	pop    %rbx
    2007:	c3                   	retq   
    2008:	48 8d 3d db 15 00 00 	lea    0x15db(%rip),%rdi        # 35ea <_IO_stdin_used+0x44a>
    200f:	e8 2c ee ff ff       	callq  e40 <puts@plt>
    2014:	b8 00 00 00 00       	mov    $0x0,%eax
    2019:	e8 fc fc ff ff       	callq  1d1a <check_fail>
    201e:	89 f9                	mov    %edi,%ecx
    2020:	48 8d 35 01 17 00 00 	lea    0x1701(%rip),%rsi        # 3728 <_IO_stdin_used+0x588>
    2027:	bf 01 00 00 00       	mov    $0x1,%edi
    202c:	b8 00 00 00 00       	mov    $0x0,%eax
    2031:	e8 2a ef ff ff       	callq  f60 <__printf_chk@plt>
    2036:	b8 00 00 00 00       	mov    $0x0,%eax
    203b:	e8 da fc ff ff       	callq  1d1a <check_fail>
    2040:	39 3d 96 33 20 00    	cmp    %edi,0x203396(%rip)        # 2053dc <vlevel>
    2046:	74 1a                	je     2062 <validate+0xa0>
    2048:	48 8d 3d 9b 15 00 00 	lea    0x159b(%rip),%rdi        # 35ea <_IO_stdin_used+0x44a>
    204f:	e8 ec ed ff ff       	callq  e40 <puts@plt>
    2054:	89 de                	mov    %ebx,%esi
    2056:	bf 00 00 00 00       	mov    $0x0,%edi
    205b:	e8 44 fd ff ff       	callq  1da4 <notify_server>
    2060:	eb a4                	jmp    2006 <validate+0x44>
    2062:	0f be 0d 9f 3f 20 00 	movsbl 0x203f9f(%rip),%ecx        # 206008 <target_prefix>
    2069:	89 fa                	mov    %edi,%edx
    206b:	48 8d 35 de 16 00 00 	lea    0x16de(%rip),%rsi        # 3750 <_IO_stdin_used+0x5b0>
    2072:	bf 01 00 00 00       	mov    $0x1,%edi
    2077:	b8 00 00 00 00       	mov    $0x0,%eax
    207c:	e8 df ee ff ff       	callq  f60 <__printf_chk@plt>
    2081:	89 de                	mov    %ebx,%esi
    2083:	bf 01 00 00 00       	mov    $0x1,%edi
    2088:	e8 17 fd ff ff       	callq  1da4 <notify_server>
    208d:	e9 74 ff ff ff       	jmpq   2006 <validate+0x44>

0000000000002092 <fail>:
    2092:	48 83 ec 08          	sub    $0x8,%rsp
    2096:	83 3d 4b 33 20 00 00 	cmpl   $0x0,0x20334b(%rip)        # 2053e8 <is_checker>
    209d:	75 11                	jne    20b0 <fail+0x1e>
    209f:	89 fe                	mov    %edi,%esi
    20a1:	bf 00 00 00 00       	mov    $0x0,%edi
    20a6:	e8 f9 fc ff ff       	callq  1da4 <notify_server>
    20ab:	48 83 c4 08          	add    $0x8,%rsp
    20af:	c3                   	retq   
    20b0:	b8 00 00 00 00       	mov    $0x0,%eax
    20b5:	e8 60 fc ff ff       	callq  1d1a <check_fail>

00000000000020ba <bushandler>:
    20ba:	48 83 ec 08          	sub    $0x8,%rsp
    20be:	83 3d 23 33 20 00 00 	cmpl   $0x0,0x203323(%rip)        # 2053e8 <is_checker>
    20c5:	74 16                	je     20dd <bushandler+0x23>
    20c7:	48 8d 3d 4f 15 00 00 	lea    0x154f(%rip),%rdi        # 361d <_IO_stdin_used+0x47d>
    20ce:	e8 6d ed ff ff       	callq  e40 <puts@plt>
    20d3:	b8 00 00 00 00       	mov    $0x0,%eax
    20d8:	e8 3d fc ff ff       	callq  1d1a <check_fail>
    20dd:	48 8d 3d a4 16 00 00 	lea    0x16a4(%rip),%rdi        # 3788 <_IO_stdin_used+0x5e8>
    20e4:	e8 57 ed ff ff       	callq  e40 <puts@plt>
    20e9:	48 8d 3d 37 15 00 00 	lea    0x1537(%rip),%rdi        # 3627 <_IO_stdin_used+0x487>
    20f0:	e8 4b ed ff ff       	callq  e40 <puts@plt>
    20f5:	be 00 00 00 00       	mov    $0x0,%esi
    20fa:	bf 00 00 00 00       	mov    $0x0,%edi
    20ff:	e8 a0 fc ff ff       	callq  1da4 <notify_server>
    2104:	bf 01 00 00 00       	mov    $0x1,%edi
    2109:	e8 a2 ee ff ff       	callq  fb0 <exit@plt>

000000000000210e <seghandler>:
    210e:	48 83 ec 08          	sub    $0x8,%rsp
    2112:	83 3d cf 32 20 00 00 	cmpl   $0x0,0x2032cf(%rip)        # 2053e8 <is_checker>
    2119:	74 16                	je     2131 <seghandler+0x23>
    211b:	48 8d 3d 1b 15 00 00 	lea    0x151b(%rip),%rdi        # 363d <_IO_stdin_used+0x49d>
    2122:	e8 19 ed ff ff       	callq  e40 <puts@plt>
    2127:	b8 00 00 00 00       	mov    $0x0,%eax
    212c:	e8 e9 fb ff ff       	callq  1d1a <check_fail>
    2131:	48 8d 3d 70 16 00 00 	lea    0x1670(%rip),%rdi        # 37a8 <_IO_stdin_used+0x608>
    2138:	e8 03 ed ff ff       	callq  e40 <puts@plt>
    213d:	48 8d 3d e3 14 00 00 	lea    0x14e3(%rip),%rdi        # 3627 <_IO_stdin_used+0x487>
    2144:	e8 f7 ec ff ff       	callq  e40 <puts@plt>
    2149:	be 00 00 00 00       	mov    $0x0,%esi
    214e:	bf 00 00 00 00       	mov    $0x0,%edi
    2153:	e8 4c fc ff ff       	callq  1da4 <notify_server>
    2158:	bf 01 00 00 00       	mov    $0x1,%edi
    215d:	e8 4e ee ff ff       	callq  fb0 <exit@plt>

0000000000002162 <illegalhandler>:
    2162:	48 83 ec 08          	sub    $0x8,%rsp
    2166:	83 3d 7b 32 20 00 00 	cmpl   $0x0,0x20327b(%rip)        # 2053e8 <is_checker>
    216d:	74 16                	je     2185 <illegalhandler+0x23>
    216f:	48 8d 3d da 14 00 00 	lea    0x14da(%rip),%rdi        # 3650 <_IO_stdin_used+0x4b0>
    2176:	e8 c5 ec ff ff       	callq  e40 <puts@plt>
    217b:	b8 00 00 00 00       	mov    $0x0,%eax
    2180:	e8 95 fb ff ff       	callq  1d1a <check_fail>
    2185:	48 8d 3d 44 16 00 00 	lea    0x1644(%rip),%rdi        # 37d0 <_IO_stdin_used+0x630>
    218c:	e8 af ec ff ff       	callq  e40 <puts@plt>
    2191:	48 8d 3d 8f 14 00 00 	lea    0x148f(%rip),%rdi        # 3627 <_IO_stdin_used+0x487>
    2198:	e8 a3 ec ff ff       	callq  e40 <puts@plt>
    219d:	be 00 00 00 00       	mov    $0x0,%esi
    21a2:	bf 00 00 00 00       	mov    $0x0,%edi
    21a7:	e8 f8 fb ff ff       	callq  1da4 <notify_server>
    21ac:	bf 01 00 00 00       	mov    $0x1,%edi
    21b1:	e8 fa ed ff ff       	callq  fb0 <exit@plt>

00000000000021b6 <sigalrmhandler>:
    21b6:	48 83 ec 08          	sub    $0x8,%rsp
    21ba:	83 3d 27 32 20 00 00 	cmpl   $0x0,0x203227(%rip)        # 2053e8 <is_checker>
    21c1:	74 16                	je     21d9 <sigalrmhandler+0x23>
    21c3:	48 8d 3d 9a 14 00 00 	lea    0x149a(%rip),%rdi        # 3664 <_IO_stdin_used+0x4c4>
    21ca:	e8 71 ec ff ff       	callq  e40 <puts@plt>
    21cf:	b8 00 00 00 00       	mov    $0x0,%eax
    21d4:	e8 41 fb ff ff       	callq  1d1a <check_fail>
    21d9:	ba 05 00 00 00       	mov    $0x5,%edx
    21de:	48 8d 35 1b 16 00 00 	lea    0x161b(%rip),%rsi        # 3800 <_IO_stdin_used+0x660>
    21e5:	bf 01 00 00 00       	mov    $0x1,%edi
    21ea:	b8 00 00 00 00       	mov    $0x0,%eax
    21ef:	e8 6c ed ff ff       	callq  f60 <__printf_chk@plt>
    21f4:	be 00 00 00 00       	mov    $0x0,%esi
    21f9:	bf 00 00 00 00       	mov    $0x0,%edi
    21fe:	e8 a1 fb ff ff       	callq  1da4 <notify_server>
    2203:	bf 01 00 00 00       	mov    $0x1,%edi
    2208:	e8 a3 ed ff ff       	callq  fb0 <exit@plt>

000000000000220d <launch>:
    220d:	55                   	push   %rbp
    220e:	48 89 e5             	mov    %rsp,%rbp
    2211:	48 83 ec 10          	sub    $0x10,%rsp
    2215:	48 89 fa             	mov    %rdi,%rdx
    2218:	64 48 8b 04 25 28 00 	mov    %fs:0x28,%rax
    221f:	00 00 
    2221:	48 89 45 f8          	mov    %rax,-0x8(%rbp)
    2225:	31 c0                	xor    %eax,%eax
    2227:	48 8d 47 1e          	lea    0x1e(%rdi),%rax
    222b:	48 83 e0 f0          	and    $0xfffffffffffffff0,%rax
    222f:	48 29 c4             	sub    %rax,%rsp
    2232:	48 8d 7c 24 0f       	lea    0xf(%rsp),%rdi
    2237:	48 83 e7 f0          	and    $0xfffffffffffffff0,%rdi
    223b:	be f4 00 00 00       	mov    $0xf4,%esi
    2240:	e8 3b ec ff ff       	callq  e80 <memset@plt>
    2245:	48 8b 05 34 31 20 00 	mov    0x203134(%rip),%rax        # 205380 <stdin@@GLIBC_2.2.5>
    224c:	48 39 05 7d 31 20 00 	cmp    %rax,0x20317d(%rip)        # 2053d0 <infile>
    2253:	74 3a                	je     228f <launch+0x82>
    2255:	c7 05 7d 31 20 00 00 	movl   $0x0,0x20317d(%rip)        # 2053dc <vlevel>
    225c:	00 00 00 
    225f:	b8 00 00 00 00       	mov    $0x0,%eax
    2264:	e8 16 fa ff ff       	callq  1c7f <test>
    2269:	83 3d 78 31 20 00 00 	cmpl   $0x0,0x203178(%rip)        # 2053e8 <is_checker>
    2270:	75 35                	jne    22a7 <launch+0x9a>
    2272:	48 8d 3d 0b 14 00 00 	lea    0x140b(%rip),%rdi        # 3684 <_IO_stdin_used+0x4e4>
    2279:	e8 c2 eb ff ff       	callq  e40 <puts@plt>
    227e:	48 8b 45 f8          	mov    -0x8(%rbp),%rax
    2282:	64 48 33 04 25 28 00 	xor    %fs:0x28,%rax
    2289:	00 00 
    228b:	75 30                	jne    22bd <launch+0xb0>
    228d:	c9                   	leaveq 
    228e:	c3                   	retq   
    228f:	48 8d 35 d6 13 00 00 	lea    0x13d6(%rip),%rsi        # 366c <_IO_stdin_used+0x4cc>
    2296:	bf 01 00 00 00       	mov    $0x1,%edi
    229b:	b8 00 00 00 00       	mov    $0x0,%eax
    22a0:	e8 bb ec ff ff       	callq  f60 <__printf_chk@plt>
    22a5:	eb ae                	jmp    2255 <launch+0x48>
    22a7:	48 8d 3d cb 13 00 00 	lea    0x13cb(%rip),%rdi        # 3679 <_IO_stdin_used+0x4d9>
    22ae:	e8 8d eb ff ff       	callq  e40 <puts@plt>
    22b3:	b8 00 00 00 00       	mov    $0x0,%eax
    22b8:	e8 5d fa ff ff       	callq  1d1a <check_fail>
    22bd:	e8 9e eb ff ff       	callq  e60 <__stack_chk_fail@plt>

00000000000022c2 <stable_launch>:
    22c2:	53                   	push   %rbx
    22c3:	48 89 3d fe 30 20 00 	mov    %rdi,0x2030fe(%rip)        # 2053c8 <global_offset>
    22ca:	41 b9 00 00 00 00    	mov    $0x0,%r9d
    22d0:	41 b8 00 00 00 00    	mov    $0x0,%r8d
    22d6:	b9 32 01 02 00       	mov    $0x20132,%ecx
    22db:	ba 07 00 00 00       	mov    $0x7,%edx
    22e0:	be 00 00 10 00       	mov    $0x100000,%esi
    22e5:	48 bf 00 60 78 55 55 	movabs $0x555555786000,%rdi
    22ec:	55 00 00 
    22ef:	e8 7c eb ff ff       	callq  e70 <mmap@plt>
    22f4:	48 89 c3             	mov    %rax,%rbx
    22f7:	48 b8 00 60 78 55 55 	movabs $0x555555786000,%rax
    22fe:	55 00 00 
    2301:	48 39 c3             	cmp    %rax,%rbx
    2304:	75 43                	jne    2349 <stable_launch+0x87>
    2306:	48 8d 93 f8 ff 0f 00 	lea    0xffff8(%rbx),%rdx
    230d:	48 89 15 fc 3c 20 00 	mov    %rdx,0x203cfc(%rip)        # 206010 <stack_top>
    2314:	48 89 e0             	mov    %rsp,%rax
    2317:	48 89 d4             	mov    %rdx,%rsp
    231a:	48 89 c2             	mov    %rax,%rdx
    231d:	48 89 15 9c 30 20 00 	mov    %rdx,0x20309c(%rip)        # 2053c0 <global_save_stack>
    2324:	48 8b 3d 9d 30 20 00 	mov    0x20309d(%rip),%rdi        # 2053c8 <global_offset>
    232b:	e8 dd fe ff ff       	callq  220d <launch>
    2330:	48 8b 05 89 30 20 00 	mov    0x203089(%rip),%rax        # 2053c0 <global_save_stack>
    2337:	48 89 c4             	mov    %rax,%rsp
    233a:	be 00 00 10 00       	mov    $0x100000,%esi
    233f:	48 89 df             	mov    %rbx,%rdi
    2342:	e8 09 ec ff ff       	callq  f50 <munmap@plt>
    2347:	5b                   	pop    %rbx
    2348:	c3                   	retq   
    2349:	be 00 00 10 00       	mov    $0x100000,%esi
    234e:	48 89 df             	mov    %rbx,%rdi
    2351:	e8 fa eb ff ff       	callq  f50 <munmap@plt>
    2356:	48 b9 00 60 78 55 55 	movabs $0x555555786000,%rcx
    235d:	55 00 00 
    2360:	48 8d 15 d1 14 00 00 	lea    0x14d1(%rip),%rdx        # 3838 <_IO_stdin_used+0x698>
    2367:	be 01 00 00 00       	mov    $0x1,%esi
    236c:	48 8b 3d 2d 30 20 00 	mov    0x20302d(%rip),%rdi        # 2053a0 <stderr@@GLIBC_2.2.5>
    2373:	b8 00 00 00 00       	mov    $0x0,%eax
    2378:	e8 53 ec ff ff       	callq  fd0 <__fprintf_chk@plt>
    237d:	bf 01 00 00 00       	mov    $0x1,%edi
    2382:	e8 29 ec ff ff       	callq  fb0 <exit@plt>

0000000000002387 <rio_readinitb>:
    2387:	89 37                	mov    %esi,(%rdi)
    2389:	c7 47 04 00 00 00 00 	movl   $0x0,0x4(%rdi)
    2390:	48 8d 47 10          	lea    0x10(%rdi),%rax
    2394:	48 89 47 08          	mov    %rax,0x8(%rdi)
    2398:	c3                   	retq   

0000000000002399 <sigalrm_handler>:
    2399:	48 83 ec 08          	sub    $0x8,%rsp
    239d:	b9 00 00 00 00       	mov    $0x0,%ecx
    23a2:	48 8d 15 c7 14 00 00 	lea    0x14c7(%rip),%rdx        # 3870 <trans_char+0x10>
    23a9:	be 01 00 00 00       	mov    $0x1,%esi
    23ae:	48 8b 3d eb 2f 20 00 	mov    0x202feb(%rip),%rdi        # 2053a0 <stderr@@GLIBC_2.2.5>
    23b5:	b8 00 00 00 00       	mov    $0x0,%eax
    23ba:	e8 11 ec ff ff       	callq  fd0 <__fprintf_chk@plt>
    23bf:	bf 01 00 00 00       	mov    $0x1,%edi
    23c4:	e8 e7 eb ff ff       	callq  fb0 <exit@plt>

00000000000023c9 <rio_writen>:
    23c9:	41 55                	push   %r13
    23cb:	41 54                	push   %r12
    23cd:	55                   	push   %rbp
    23ce:	53                   	push   %rbx
    23cf:	48 83 ec 08          	sub    $0x8,%rsp
    23d3:	41 89 fc             	mov    %edi,%r12d
    23d6:	48 89 f5             	mov    %rsi,%rbp
    23d9:	49 89 d5             	mov    %rdx,%r13
    23dc:	48 89 d3             	mov    %rdx,%rbx
    23df:	eb 06                	jmp    23e7 <rio_writen+0x1e>
    23e1:	48 29 c3             	sub    %rax,%rbx
    23e4:	48 01 c5             	add    %rax,%rbp
    23e7:	48 85 db             	test   %rbx,%rbx
    23ea:	74 24                	je     2410 <rio_writen+0x47>
    23ec:	48 89 da             	mov    %rbx,%rdx
    23ef:	48 89 ee             	mov    %rbp,%rsi
    23f2:	44 89 e7             	mov    %r12d,%edi
    23f5:	e8 56 ea ff ff       	callq  e50 <write@plt>
    23fa:	48 85 c0             	test   %rax,%rax
    23fd:	7f e2                	jg     23e1 <rio_writen+0x18>
    23ff:	e8 fc e9 ff ff       	callq  e00 <__errno_location@plt>
    2404:	83 38 04             	cmpl   $0x4,(%rax)
    2407:	75 15                	jne    241e <rio_writen+0x55>
    2409:	b8 00 00 00 00       	mov    $0x0,%eax
    240e:	eb d1                	jmp    23e1 <rio_writen+0x18>
    2410:	4c 89 e8             	mov    %r13,%rax
    2413:	48 83 c4 08          	add    $0x8,%rsp
    2417:	5b                   	pop    %rbx
    2418:	5d                   	pop    %rbp
    2419:	41 5c                	pop    %r12
    241b:	41 5d                	pop    %r13
    241d:	c3                   	retq   
    241e:	48 c7 c0 ff ff ff ff 	mov    $0xffffffffffffffff,%rax
    2425:	eb ec                	jmp    2413 <rio_writen+0x4a>

0000000000002427 <rio_read>:
    2427:	41 55                	push   %r13
    2429:	41 54                	push   %r12
    242b:	55                   	push   %rbp
    242c:	53                   	push   %rbx
    242d:	48 83 ec 08          	sub    $0x8,%rsp
    2431:	48 89 fb             	mov    %rdi,%rbx
    2434:	49 89 f5             	mov    %rsi,%r13
    2437:	49 89 d4             	mov    %rdx,%r12
    243a:	eb 0a                	jmp    2446 <rio_read+0x1f>
    243c:	e8 bf e9 ff ff       	callq  e00 <__errno_location@plt>
    2441:	83 38 04             	cmpl   $0x4,(%rax)
    2444:	75 5c                	jne    24a2 <rio_read+0x7b>
    2446:	8b 6b 04             	mov    0x4(%rbx),%ebp
    2449:	85 ed                	test   %ebp,%ebp
    244b:	7f 24                	jg     2471 <rio_read+0x4a>
    244d:	48 8d 6b 10          	lea    0x10(%rbx),%rbp
    2451:	8b 3b                	mov    (%rbx),%edi
    2453:	ba 00 20 00 00       	mov    $0x2000,%edx
    2458:	48 89 ee             	mov    %rbp,%rsi
    245b:	e8 50 ea ff ff       	callq  eb0 <read@plt>
    2460:	89 43 04             	mov    %eax,0x4(%rbx)
    2463:	85 c0                	test   %eax,%eax
    2465:	78 d5                	js     243c <rio_read+0x15>
    2467:	85 c0                	test   %eax,%eax
    2469:	74 40                	je     24ab <rio_read+0x84>
    246b:	48 89 6b 08          	mov    %rbp,0x8(%rbx)
    246f:	eb d5                	jmp    2446 <rio_read+0x1f>
    2471:	89 e8                	mov    %ebp,%eax
    2473:	4c 39 e0             	cmp    %r12,%rax
    2476:	72 03                	jb     247b <rio_read+0x54>
    2478:	44 89 e5             	mov    %r12d,%ebp
    247b:	4c 63 e5             	movslq %ebp,%r12
    247e:	48 8b 73 08          	mov    0x8(%rbx),%rsi
    2482:	4c 89 e2             	mov    %r12,%rdx
    2485:	4c 89 ef             	mov    %r13,%rdi
    2488:	e8 73 ea ff ff       	callq  f00 <memcpy@plt>
    248d:	4c 01 63 08          	add    %r12,0x8(%rbx)
    2491:	29 6b 04             	sub    %ebp,0x4(%rbx)
    2494:	4c 89 e0             	mov    %r12,%rax
    2497:	48 83 c4 08          	add    $0x8,%rsp
    249b:	5b                   	pop    %rbx
    249c:	5d                   	pop    %rbp
    249d:	41 5c                	pop    %r12
    249f:	41 5d                	pop    %r13
    24a1:	c3                   	retq   
    24a2:	48 c7 c0 ff ff ff ff 	mov    $0xffffffffffffffff,%rax
    24a9:	eb ec                	jmp    2497 <rio_read+0x70>
    24ab:	b8 00 00 00 00       	mov    $0x0,%eax
    24b0:	eb e5                	jmp    2497 <rio_read+0x70>

00000000000024b2 <rio_readlineb>:
    24b2:	41 55                	push   %r13
    24b4:	41 54                	push   %r12
    24b6:	55                   	push   %rbp
    24b7:	53                   	push   %rbx
    24b8:	48 83 ec 18          	sub    $0x18,%rsp
    24bc:	49 89 fd             	mov    %rdi,%r13
    24bf:	48 89 f5             	mov    %rsi,%rbp
    24c2:	49 89 d4             	mov    %rdx,%r12
    24c5:	64 48 8b 04 25 28 00 	mov    %fs:0x28,%rax
    24cc:	00 00 
    24ce:	48 89 44 24 08       	mov    %rax,0x8(%rsp)
    24d3:	31 c0                	xor    %eax,%eax
    24d5:	bb 01 00 00 00       	mov    $0x1,%ebx
    24da:	4c 39 e3             	cmp    %r12,%rbx
    24dd:	73 47                	jae    2526 <rio_readlineb+0x74>
    24df:	48 8d 74 24 07       	lea    0x7(%rsp),%rsi
    24e4:	ba 01 00 00 00       	mov    $0x1,%edx
    24e9:	4c 89 ef             	mov    %r13,%rdi
    24ec:	e8 36 ff ff ff       	callq  2427 <rio_read>
    24f1:	83 f8 01             	cmp    $0x1,%eax
    24f4:	75 1c                	jne    2512 <rio_readlineb+0x60>
    24f6:	48 8d 45 01          	lea    0x1(%rbp),%rax
    24fa:	0f b6 54 24 07       	movzbl 0x7(%rsp),%edx
    24ff:	88 55 00             	mov    %dl,0x0(%rbp)
    2502:	80 7c 24 07 0a       	cmpb   $0xa,0x7(%rsp)
    2507:	74 1a                	je     2523 <rio_readlineb+0x71>
    2509:	48 83 c3 01          	add    $0x1,%rbx
    250d:	48 89 c5             	mov    %rax,%rbp
    2510:	eb c8                	jmp    24da <rio_readlineb+0x28>
    2512:	85 c0                	test   %eax,%eax
    2514:	75 32                	jne    2548 <rio_readlineb+0x96>
    2516:	48 83 fb 01          	cmp    $0x1,%rbx
    251a:	75 0a                	jne    2526 <rio_readlineb+0x74>
    251c:	b8 00 00 00 00       	mov    $0x0,%eax
    2521:	eb 0a                	jmp    252d <rio_readlineb+0x7b>
    2523:	48 89 c5             	mov    %rax,%rbp
    2526:	c6 45 00 00          	movb   $0x0,0x0(%rbp)
    252a:	48 89 d8             	mov    %rbx,%rax
    252d:	48 8b 4c 24 08       	mov    0x8(%rsp),%rcx
    2532:	64 48 33 0c 25 28 00 	xor    %fs:0x28,%rcx
    2539:	00 00 
    253b:	75 14                	jne    2551 <rio_readlineb+0x9f>
    253d:	48 83 c4 18          	add    $0x18,%rsp
    2541:	5b                   	pop    %rbx
    2542:	5d                   	pop    %rbp
    2543:	41 5c                	pop    %r12
    2545:	41 5d                	pop    %r13
    2547:	c3                   	retq   
    2548:	48 c7 c0 ff ff ff ff 	mov    $0xffffffffffffffff,%rax
    254f:	eb dc                	jmp    252d <rio_readlineb+0x7b>
    2551:	e8 0a e9 ff ff       	callq  e60 <__stack_chk_fail@plt>

0000000000002556 <urlencode>:
    2556:	41 54                	push   %r12
    2558:	55                   	push   %rbp
    2559:	53                   	push   %rbx
    255a:	48 83 ec 10          	sub    $0x10,%rsp
    255e:	48 89 fb             	mov    %rdi,%rbx
    2561:	48 89 f5             	mov    %rsi,%rbp
    2564:	64 48 8b 04 25 28 00 	mov    %fs:0x28,%rax
    256b:	00 00 
    256d:	48 89 44 24 08       	mov    %rax,0x8(%rsp)
    2572:	31 c0                	xor    %eax,%eax
    2574:	48 c7 c1 ff ff ff ff 	mov    $0xffffffffffffffff,%rcx
    257b:	f2 ae                	repnz scas %es:(%rdi),%al
    257d:	48 89 ce             	mov    %rcx,%rsi
    2580:	48 f7 d6             	not    %rsi
    2583:	8d 46 ff             	lea    -0x1(%rsi),%eax
    2586:	eb 0f                	jmp    2597 <urlencode+0x41>
    2588:	44 88 45 00          	mov    %r8b,0x0(%rbp)
    258c:	48 8d 6d 01          	lea    0x1(%rbp),%rbp
    2590:	48 83 c3 01          	add    $0x1,%rbx
    2594:	44 89 e0             	mov    %r12d,%eax
    2597:	44 8d 60 ff          	lea    -0x1(%rax),%r12d
    259b:	85 c0                	test   %eax,%eax
    259d:	0f 84 a8 00 00 00    	je     264b <urlencode+0xf5>
    25a3:	44 0f b6 03          	movzbl (%rbx),%r8d
    25a7:	41 80 f8 2a          	cmp    $0x2a,%r8b
    25ab:	0f 94 c2             	sete   %dl
    25ae:	41 80 f8 2d          	cmp    $0x2d,%r8b
    25b2:	0f 94 c0             	sete   %al
    25b5:	08 c2                	or     %al,%dl
    25b7:	75 cf                	jne    2588 <urlencode+0x32>
    25b9:	41 80 f8 2e          	cmp    $0x2e,%r8b
    25bd:	74 c9                	je     2588 <urlencode+0x32>
    25bf:	41 80 f8 5f          	cmp    $0x5f,%r8b
    25c3:	74 c3                	je     2588 <urlencode+0x32>
    25c5:	41 8d 40 d0          	lea    -0x30(%r8),%eax
    25c9:	3c 09                	cmp    $0x9,%al
    25cb:	76 bb                	jbe    2588 <urlencode+0x32>
    25cd:	41 8d 40 bf          	lea    -0x41(%r8),%eax
    25d1:	3c 19                	cmp    $0x19,%al
    25d3:	76 b3                	jbe    2588 <urlencode+0x32>
    25d5:	41 8d 40 9f          	lea    -0x61(%r8),%eax
    25d9:	3c 19                	cmp    $0x19,%al
    25db:	76 ab                	jbe    2588 <urlencode+0x32>
    25dd:	41 80 f8 20          	cmp    $0x20,%r8b
    25e1:	74 56                	je     2639 <urlencode+0xe3>
    25e3:	41 8d 40 e0          	lea    -0x20(%r8),%eax
    25e7:	3c 5f                	cmp    $0x5f,%al
    25e9:	0f 96 c2             	setbe  %dl
    25ec:	41 80 f8 09          	cmp    $0x9,%r8b
    25f0:	0f 94 c0             	sete   %al
    25f3:	08 c2                	or     %al,%dl
    25f5:	74 4f                	je     2646 <urlencode+0xf0>
    25f7:	48 89 e7             	mov    %rsp,%rdi
    25fa:	45 0f b6 c0          	movzbl %r8b,%r8d
    25fe:	48 8d 0d 33 13 00 00 	lea    0x1333(%rip),%rcx        # 3938 <trans_char+0xd8>
    2605:	ba 08 00 00 00       	mov    $0x8,%edx
    260a:	be 01 00 00 00       	mov    $0x1,%esi
    260f:	b8 00 00 00 00       	mov    $0x0,%eax
    2614:	e8 c7 e9 ff ff       	callq  fe0 <__sprintf_chk@plt>
    2619:	0f b6 04 24          	movzbl (%rsp),%eax
    261d:	88 45 00             	mov    %al,0x0(%rbp)
    2620:	0f b6 44 24 01       	movzbl 0x1(%rsp),%eax
    2625:	88 45 01             	mov    %al,0x1(%rbp)
    2628:	0f b6 44 24 02       	movzbl 0x2(%rsp),%eax
    262d:	88 45 02             	mov    %al,0x2(%rbp)
    2630:	48 8d 6d 03          	lea    0x3(%rbp),%rbp
    2634:	e9 57 ff ff ff       	jmpq   2590 <urlencode+0x3a>
    2639:	c6 45 00 2b          	movb   $0x2b,0x0(%rbp)
    263d:	48 8d 6d 01          	lea    0x1(%rbp),%rbp
    2641:	e9 4a ff ff ff       	jmpq   2590 <urlencode+0x3a>
    2646:	b8 ff ff ff ff       	mov    $0xffffffff,%eax
    264b:	48 8b 74 24 08       	mov    0x8(%rsp),%rsi
    2650:	64 48 33 34 25 28 00 	xor    %fs:0x28,%rsi
    2657:	00 00 
    2659:	75 09                	jne    2664 <urlencode+0x10e>
    265b:	48 83 c4 10          	add    $0x10,%rsp
    265f:	5b                   	pop    %rbx
    2660:	5d                   	pop    %rbp
    2661:	41 5c                	pop    %r12
    2663:	c3                   	retq   
    2664:	e8 f7 e7 ff ff       	callq  e60 <__stack_chk_fail@plt>

0000000000002669 <submitr>:
    2669:	41 57                	push   %r15
    266b:	41 56                	push   %r14
    266d:	41 55                	push   %r13
    266f:	41 54                	push   %r12
    2671:	55                   	push   %rbp
    2672:	53                   	push   %rbx
    2673:	48 81 ec 68 a0 00 00 	sub    $0xa068,%rsp
    267a:	49 89 fd             	mov    %rdi,%r13
    267d:	89 74 24 14          	mov    %esi,0x14(%rsp)
    2681:	49 89 d7             	mov    %rdx,%r15
    2684:	48 89 4c 24 08       	mov    %rcx,0x8(%rsp)
    2689:	4c 89 44 24 18       	mov    %r8,0x18(%rsp)
    268e:	4d 89 ce             	mov    %r9,%r14
    2691:	48 8b ac 24 a0 a0 00 	mov    0xa0a0(%rsp),%rbp
    2698:	00 
    2699:	64 48 8b 04 25 28 00 	mov    %fs:0x28,%rax
    26a0:	00 00 
    26a2:	48 89 84 24 58 a0 00 	mov    %rax,0xa058(%rsp)
    26a9:	00 
    26aa:	31 c0                	xor    %eax,%eax
    26ac:	c7 44 24 2c 00 00 00 	movl   $0x0,0x2c(%rsp)
    26b3:	00 
    26b4:	ba 00 00 00 00       	mov    $0x0,%edx
    26b9:	be 01 00 00 00       	mov    $0x1,%esi
    26be:	bf 02 00 00 00       	mov    $0x2,%edi
    26c3:	e8 28 e9 ff ff       	callq  ff0 <socket@plt>
    26c8:	85 c0                	test   %eax,%eax
    26ca:	0f 88 a9 02 00 00    	js     2979 <submitr+0x310>
    26d0:	89 c3                	mov    %eax,%ebx
    26d2:	4c 89 ef             	mov    %r13,%rdi
    26d5:	e8 f6 e7 ff ff       	callq  ed0 <gethostbyname@plt>
    26da:	48 85 c0             	test   %rax,%rax
    26dd:	0f 84 e2 02 00 00    	je     29c5 <submitr+0x35c>
    26e3:	4c 8d 64 24 30       	lea    0x30(%rsp),%r12
    26e8:	48 c7 44 24 32 00 00 	movq   $0x0,0x32(%rsp)
    26ef:	00 00 
    26f1:	c7 44 24 3a 00 00 00 	movl   $0x0,0x3a(%rsp)
    26f8:	00 
    26f9:	66 c7 44 24 3e 00 00 	movw   $0x0,0x3e(%rsp)
    2700:	66 c7 44 24 30 02 00 	movw   $0x2,0x30(%rsp)
    2707:	48 63 50 14          	movslq 0x14(%rax),%rdx
    270b:	48 8b 40 18          	mov    0x18(%rax),%rax
    270f:	48 8b 30             	mov    (%rax),%rsi
    2712:	48 8d 7c 24 34       	lea    0x34(%rsp),%rdi
    2717:	b9 0c 00 00 00       	mov    $0xc,%ecx
    271c:	e8 bf e7 ff ff       	callq  ee0 <__memmove_chk@plt>
    2721:	0f b7 44 24 14       	movzwl 0x14(%rsp),%eax
    2726:	66 c1 c8 08          	ror    $0x8,%ax
    272a:	66 89 44 24 32       	mov    %ax,0x32(%rsp)
    272f:	ba 10 00 00 00       	mov    $0x10,%edx
    2734:	4c 89 e6             	mov    %r12,%rsi
    2737:	89 df                	mov    %ebx,%edi
    2739:	e8 82 e8 ff ff       	callq  fc0 <connect@plt>
    273e:	85 c0                	test   %eax,%eax
    2740:	0f 88 e7 02 00 00    	js     2a2d <submitr+0x3c4>
    2746:	48 c7 c6 ff ff ff ff 	mov    $0xffffffffffffffff,%rsi
    274d:	b8 00 00 00 00       	mov    $0x0,%eax
    2752:	48 89 f1             	mov    %rsi,%rcx
    2755:	4c 89 f7             	mov    %r14,%rdi
    2758:	f2 ae                	repnz scas %es:(%rdi),%al
    275a:	48 89 ca             	mov    %rcx,%rdx
    275d:	48 f7 d2             	not    %rdx
    2760:	48 89 f1             	mov    %rsi,%rcx
    2763:	4c 89 ff             	mov    %r15,%rdi
    2766:	f2 ae                	repnz scas %es:(%rdi),%al
    2768:	48 f7 d1             	not    %rcx
    276b:	49 89 c8             	mov    %rcx,%r8
    276e:	48 89 f1             	mov    %rsi,%rcx
    2771:	48 8b 7c 24 08       	mov    0x8(%rsp),%rdi
    2776:	f2 ae                	repnz scas %es:(%rdi),%al
    2778:	48 f7 d1             	not    %rcx
    277b:	4d 8d 44 08 fe       	lea    -0x2(%r8,%rcx,1),%r8
    2780:	48 89 f1             	mov    %rsi,%rcx
    2783:	48 8b 7c 24 18       	mov    0x18(%rsp),%rdi
    2788:	f2 ae                	repnz scas %es:(%rdi),%al
    278a:	48 89 c8             	mov    %rcx,%rax
    278d:	48 f7 d0             	not    %rax
    2790:	49 8d 4c 00 ff       	lea    -0x1(%r8,%rax,1),%rcx
    2795:	48 8d 44 52 fd       	lea    -0x3(%rdx,%rdx,2),%rax
    279a:	48 8d 84 01 80 00 00 	lea    0x80(%rcx,%rax,1),%rax
    27a1:	00 
    27a2:	48 3d 00 20 00 00    	cmp    $0x2000,%rax
    27a8:	0f 87 d9 02 00 00    	ja     2a87 <submitr+0x41e>
    27ae:	48 8d b4 24 50 40 00 	lea    0x4050(%rsp),%rsi
    27b5:	00 
    27b6:	b9 00 04 00 00       	mov    $0x400,%ecx
    27bb:	b8 00 00 00 00       	mov    $0x0,%eax
    27c0:	48 89 f7             	mov    %rsi,%rdi
    27c3:	f3 48 ab             	rep stos %rax,%es:(%rdi)
    27c6:	4c 89 f7             	mov    %r14,%rdi
    27c9:	e8 88 fd ff ff       	callq  2556 <urlencode>
    27ce:	85 c0                	test   %eax,%eax
    27d0:	0f 88 24 03 00 00    	js     2afa <submitr+0x491>
    27d6:	4c 8d a4 24 50 20 00 	lea    0x2050(%rsp),%r12
    27dd:	00 
    27de:	41 55                	push   %r13
    27e0:	48 8d 84 24 58 40 00 	lea    0x4058(%rsp),%rax
    27e7:	00 
    27e8:	50                   	push   %rax
    27e9:	4d 89 f9             	mov    %r15,%r9
    27ec:	4c 8b 44 24 18       	mov    0x18(%rsp),%r8
    27f1:	48 8d 0d a0 10 00 00 	lea    0x10a0(%rip),%rcx        # 3898 <trans_char+0x38>
    27f8:	ba 00 20 00 00       	mov    $0x2000,%edx
    27fd:	be 01 00 00 00       	mov    $0x1,%esi
    2802:	4c 89 e7             	mov    %r12,%rdi
    2805:	b8 00 00 00 00       	mov    $0x0,%eax
    280a:	e8 d1 e7 ff ff       	callq  fe0 <__sprintf_chk@plt>
    280f:	48 c7 c1 ff ff ff ff 	mov    $0xffffffffffffffff,%rcx
    2816:	b8 00 00 00 00       	mov    $0x0,%eax
    281b:	4c 89 e7             	mov    %r12,%rdi
    281e:	f2 ae                	repnz scas %es:(%rdi),%al
    2820:	48 89 ca             	mov    %rcx,%rdx
    2823:	48 f7 d2             	not    %rdx
    2826:	48 8d 52 ff          	lea    -0x1(%rdx),%rdx
    282a:	4c 89 e6             	mov    %r12,%rsi
    282d:	89 df                	mov    %ebx,%edi
    282f:	e8 95 fb ff ff       	callq  23c9 <rio_writen>
    2834:	48 83 c4 10          	add    $0x10,%rsp
    2838:	48 85 c0             	test   %rax,%rax
    283b:	0f 88 44 03 00 00    	js     2b85 <submitr+0x51c>
    2841:	4c 8d 64 24 40       	lea    0x40(%rsp),%r12
    2846:	89 de                	mov    %ebx,%esi
    2848:	4c 89 e7             	mov    %r12,%rdi
    284b:	e8 37 fb ff ff       	callq  2387 <rio_readinitb>
    2850:	48 8d b4 24 50 20 00 	lea    0x2050(%rsp),%rsi
    2857:	00 
    2858:	ba 00 20 00 00       	mov    $0x2000,%edx
    285d:	4c 89 e7             	mov    %r12,%rdi
    2860:	e8 4d fc ff ff       	callq  24b2 <rio_readlineb>
    2865:	48 85 c0             	test   %rax,%rax
    2868:	0f 8e 86 03 00 00    	jle    2bf4 <submitr+0x58b>
    286e:	48 8d 4c 24 2c       	lea    0x2c(%rsp),%rcx
    2873:	48 8d 94 24 50 60 00 	lea    0x6050(%rsp),%rdx
    287a:	00 
    287b:	48 8d bc 24 50 20 00 	lea    0x2050(%rsp),%rdi
    2882:	00 
    2883:	4c 8d 84 24 50 80 00 	lea    0x8050(%rsp),%r8
    288a:	00 
    288b:	48 8d 35 ad 10 00 00 	lea    0x10ad(%rip),%rsi        # 393f <trans_char+0xdf>
    2892:	b8 00 00 00 00       	mov    $0x0,%eax
    2897:	e8 a4 e6 ff ff       	callq  f40 <__isoc99_sscanf@plt>
    289c:	48 8d b4 24 50 20 00 	lea    0x2050(%rsp),%rsi
    28a3:	00 
    28a4:	b9 03 00 00 00       	mov    $0x3,%ecx
    28a9:	48 8d 3d a6 10 00 00 	lea    0x10a6(%rip),%rdi        # 3956 <trans_char+0xf6>
    28b0:	f3 a6                	repz cmpsb %es:(%rdi),%ds:(%rsi)
    28b2:	0f 97 c0             	seta   %al
    28b5:	1c 00                	sbb    $0x0,%al
    28b7:	84 c0                	test   %al,%al
    28b9:	0f 84 b3 03 00 00    	je     2c72 <submitr+0x609>
    28bf:	48 8d b4 24 50 20 00 	lea    0x2050(%rsp),%rsi
    28c6:	00 
    28c7:	48 8d 7c 24 40       	lea    0x40(%rsp),%rdi
    28cc:	ba 00 20 00 00       	mov    $0x2000,%edx
    28d1:	e8 dc fb ff ff       	callq  24b2 <rio_readlineb>
    28d6:	48 85 c0             	test   %rax,%rax
    28d9:	7f c1                	jg     289c <submitr+0x233>
    28db:	48 b8 45 72 72 6f 72 	movabs $0x43203a726f727245,%rax
    28e2:	3a 20 43 
    28e5:	48 ba 6c 69 65 6e 74 	movabs $0x6e7520746e65696c,%rdx
    28ec:	20 75 6e 
    28ef:	48 89 45 00          	mov    %rax,0x0(%rbp)
    28f3:	48 89 55 08          	mov    %rdx,0x8(%rbp)
    28f7:	48 b8 61 62 6c 65 20 	movabs $0x206f7420656c6261,%rax
    28fe:	74 6f 20 
    2901:	48 ba 72 65 61 64 20 	movabs $0x6165682064616572,%rdx
    2908:	68 65 61 
    290b:	48 89 45 10          	mov    %rax,0x10(%rbp)
    290f:	48 89 55 18          	mov    %rdx,0x18(%rbp)
    2913:	48 b8 64 65 72 73 20 	movabs $0x6f72662073726564,%rax
    291a:	66 72 6f 
    291d:	48 ba 6d 20 74 68 65 	movabs $0x657220656874206d,%rdx
    2924:	20 72 65 
    2927:	48 89 45 20          	mov    %rax,0x20(%rbp)
    292b:	48 89 55 28          	mov    %rdx,0x28(%rbp)
    292f:	48 b8 73 75 6c 74 20 	movabs $0x72657320746c7573,%rax
    2936:	73 65 72 
    2939:	48 89 45 30          	mov    %rax,0x30(%rbp)
    293d:	c7 45 38 76 65 72 00 	movl   $0x726576,0x38(%rbp)
    2944:	89 df                	mov    %ebx,%edi
    2946:	e8 55 e5 ff ff       	callq  ea0 <close@plt>
    294b:	b8 ff ff ff ff       	mov    $0xffffffff,%eax
    2950:	48 8b 9c 24 58 a0 00 	mov    0xa058(%rsp),%rbx
    2957:	00 
    2958:	64 48 33 1c 25 28 00 	xor    %fs:0x28,%rbx
    295f:	00 00 
    2961:	0f 85 7e 04 00 00    	jne    2de5 <submitr+0x77c>
    2967:	48 81 c4 68 a0 00 00 	add    $0xa068,%rsp
    296e:	5b                   	pop    %rbx
    296f:	5d                   	pop    %rbp
    2970:	41 5c                	pop    %r12
    2972:	41 5d                	pop    %r13
    2974:	41 5e                	pop    %r14
    2976:	41 5f                	pop    %r15
    2978:	c3                   	retq   
    2979:	48 b8 45 72 72 6f 72 	movabs $0x43203a726f727245,%rax
    2980:	3a 20 43 
    2983:	48 ba 6c 69 65 6e 74 	movabs $0x6e7520746e65696c,%rdx
    298a:	20 75 6e 
    298d:	48 89 45 00          	mov    %rax,0x0(%rbp)
    2991:	48 89 55 08          	mov    %rdx,0x8(%rbp)
    2995:	48 b8 61 62 6c 65 20 	movabs $0x206f7420656c6261,%rax
    299c:	74 6f 20 
    299f:	48 ba 63 72 65 61 74 	movabs $0x7320657461657263,%rdx
    29a6:	65 20 73 
    29a9:	48 89 45 10          	mov    %rax,0x10(%rbp)
    29ad:	48 89 55 18          	mov    %rdx,0x18(%rbp)
    29b1:	c7 45 20 6f 63 6b 65 	movl   $0x656b636f,0x20(%rbp)
    29b8:	66 c7 45 24 74 00    	movw   $0x74,0x24(%rbp)
    29be:	b8 ff ff ff ff       	mov    $0xffffffff,%eax
    29c3:	eb 8b                	jmp    2950 <submitr+0x2e7>
    29c5:	48 b8 45 72 72 6f 72 	movabs $0x44203a726f727245,%rax
    29cc:	3a 20 44 
    29cf:	48 ba 4e 53 20 69 73 	movabs $0x6e7520736920534e,%rdx
    29d6:	20 75 6e 
    29d9:	48 89 45 00          	mov    %rax,0x0(%rbp)
    29dd:	48 89 55 08          	mov    %rdx,0x8(%rbp)
    29e1:	48 b8 61 62 6c 65 20 	movabs $0x206f7420656c6261,%rax
    29e8:	74 6f 20 
    29eb:	48 ba 72 65 73 6f 6c 	movabs $0x2065766c6f736572,%rdx
    29f2:	76 65 20 
    29f5:	48 89 45 10          	mov    %rax,0x10(%rbp)
    29f9:	48 89 55 18          	mov    %rdx,0x18(%rbp)
    29fd:	48 b8 73 65 72 76 65 	movabs $0x6120726576726573,%rax
    2a04:	72 20 61 
    2a07:	48 89 45 20          	mov    %rax,0x20(%rbp)
    2a0b:	c7 45 28 64 64 72 65 	movl   $0x65726464,0x28(%rbp)
    2a12:	66 c7 45 2c 73 73    	movw   $0x7373,0x2c(%rbp)
    2a18:	c6 45 2e 00          	movb   $0x0,0x2e(%rbp)
    2a1c:	89 df                	mov    %ebx,%edi
    2a1e:	e8 7d e4 ff ff       	callq  ea0 <close@plt>
    2a23:	b8 ff ff ff ff       	mov    $0xffffffff,%eax
    2a28:	e9 23 ff ff ff       	jmpq   2950 <submitr+0x2e7>
    2a2d:	48 b8 45 72 72 6f 72 	movabs $0x55203a726f727245,%rax
    2a34:	3a 20 55 
    2a37:	48 ba 6e 61 62 6c 65 	movabs $0x6f7420656c62616e,%rdx
    2a3e:	20 74 6f 
    2a41:	48 89 45 00          	mov    %rax,0x0(%rbp)
    2a45:	48 89 55 08          	mov    %rdx,0x8(%rbp)
    2a49:	48 b8 20 63 6f 6e 6e 	movabs $0x7463656e6e6f6320,%rax
    2a50:	65 63 74 
    2a53:	48 ba 20 74 6f 20 74 	movabs $0x20656874206f7420,%rdx
    2a5a:	68 65 20 
    2a5d:	48 89 45 10          	mov    %rax,0x10(%rbp)
    2a61:	48 89 55 18          	mov    %rdx,0x18(%rbp)
    2a65:	c7 45 20 73 65 72 76 	movl   $0x76726573,0x20(%rbp)
    2a6c:	66 c7 45 24 65 72    	movw   $0x7265,0x24(%rbp)
    2a72:	c6 45 26 00          	movb   $0x0,0x26(%rbp)
    2a76:	89 df                	mov    %ebx,%edi
    2a78:	e8 23 e4 ff ff       	callq  ea0 <close@plt>
    2a7d:	b8 ff ff ff ff       	mov    $0xffffffff,%eax
    2a82:	e9 c9 fe ff ff       	jmpq   2950 <submitr+0x2e7>
    2a87:	48 b8 45 72 72 6f 72 	movabs $0x52203a726f727245,%rax
    2a8e:	3a 20 52 
    2a91:	48 ba 65 73 75 6c 74 	movabs $0x747320746c757365,%rdx
    2a98:	20 73 74 
    2a9b:	48 89 45 00          	mov    %rax,0x0(%rbp)
    2a9f:	48 89 55 08          	mov    %rdx,0x8(%rbp)
    2aa3:	48 b8 72 69 6e 67 20 	movabs $0x6f6f7420676e6972,%rax
    2aaa:	74 6f 6f 
    2aad:	48 ba 20 6c 61 72 67 	movabs $0x202e656772616c20,%rdx
    2ab4:	65 2e 20 
    2ab7:	48 89 45 10          	mov    %rax,0x10(%rbp)
    2abb:	48 89 55 18          	mov    %rdx,0x18(%rbp)
    2abf:	48 b8 49 6e 63 72 65 	movabs $0x6573616572636e49,%rax
    2ac6:	61 73 65 
    2ac9:	48 ba 20 53 55 42 4d 	movabs $0x5254494d42555320,%rdx
    2ad0:	49 54 52 
    2ad3:	48 89 45 20          	mov    %rax,0x20(%rbp)
    2ad7:	48 89 55 28          	mov    %rdx,0x28(%rbp)
    2adb:	48 b8 5f 4d 41 58 42 	movabs $0x46554258414d5f,%rax
    2ae2:	55 46 00 
    2ae5:	48 89 45 30          	mov    %rax,0x30(%rbp)
    2ae9:	89 df                	mov    %ebx,%edi
    2aeb:	e8 b0 e3 ff ff       	callq  ea0 <close@plt>
    2af0:	b8 ff ff ff ff       	mov    $0xffffffff,%eax
    2af5:	e9 56 fe ff ff       	jmpq   2950 <submitr+0x2e7>
    2afa:	48 b8 45 72 72 6f 72 	movabs $0x52203a726f727245,%rax
    2b01:	3a 20 52 
    2b04:	48 ba 65 73 75 6c 74 	movabs $0x747320746c757365,%rdx
    2b0b:	20 73 74 
    2b0e:	48 89 45 00          	mov    %rax,0x0(%rbp)
    2b12:	48 89 55 08          	mov    %rdx,0x8(%rbp)
    2b16:	48 b8 72 69 6e 67 20 	movabs $0x6e6f6320676e6972,%rax
    2b1d:	63 6f 6e 
    2b20:	48 ba 74 61 69 6e 73 	movabs $0x6e6120736e696174,%rdx
    2b27:	20 61 6e 
    2b2a:	48 89 45 10          	mov    %rax,0x10(%rbp)
    2b2e:	48 89 55 18          	mov    %rdx,0x18(%rbp)
    2b32:	48 b8 20 69 6c 6c 65 	movabs $0x6c6167656c6c6920,%rax
    2b39:	67 61 6c 
    2b3c:	48 ba 20 6f 72 20 75 	movabs $0x72706e7520726f20,%rdx
    2b43:	6e 70 72 
    2b46:	48 89 45 20          	mov    %rax,0x20(%rbp)
    2b4a:	48 89 55 28          	mov    %rdx,0x28(%rbp)
    2b4e:	48 b8 69 6e 74 61 62 	movabs $0x20656c6261746e69,%rax
    2b55:	6c 65 20 
    2b58:	48 ba 63 68 61 72 61 	movabs $0x6574636172616863,%rdx
    2b5f:	63 74 65 
    2b62:	48 89 45 30          	mov    %rax,0x30(%rbp)
    2b66:	48 89 55 38          	mov    %rdx,0x38(%rbp)
    2b6a:	66 c7 45 40 72 2e    	movw   $0x2e72,0x40(%rbp)
    2b70:	c6 45 42 00          	movb   $0x0,0x42(%rbp)
    2b74:	89 df                	mov    %ebx,%edi
    2b76:	e8 25 e3 ff ff       	callq  ea0 <close@plt>
    2b7b:	b8 ff ff ff ff       	mov    $0xffffffff,%eax
    2b80:	e9 cb fd ff ff       	jmpq   2950 <submitr+0x2e7>
    2b85:	48 b8 45 72 72 6f 72 	movabs $0x43203a726f727245,%rax
    2b8c:	3a 20 43 
    2b8f:	48 ba 6c 69 65 6e 74 	movabs $0x6e7520746e65696c,%rdx
    2b96:	20 75 6e 
    2b99:	48 89 45 00          	mov    %rax,0x0(%rbp)
    2b9d:	48 89 55 08          	mov    %rdx,0x8(%rbp)
    2ba1:	48 b8 61 62 6c 65 20 	movabs $0x206f7420656c6261,%rax
    2ba8:	74 6f 20 
    2bab:	48 ba 77 72 69 74 65 	movabs $0x6f74206574697277,%rdx
    2bb2:	20 74 6f 
    2bb5:	48 89 45 10          	mov    %rax,0x10(%rbp)
    2bb9:	48 89 55 18          	mov    %rdx,0x18(%rbp)
    2bbd:	48 b8 20 74 68 65 20 	movabs $0x7365722065687420,%rax
    2bc4:	72 65 73 
    2bc7:	48 ba 75 6c 74 20 73 	movabs $0x7672657320746c75,%rdx
    2bce:	65 72 76 
    2bd1:	48 89 45 20          	mov    %rax,0x20(%rbp)
    2bd5:	48 89 55 28          	mov    %rdx,0x28(%rbp)
    2bd9:	66 c7 45 30 65 72    	movw   $0x7265,0x30(%rbp)
    2bdf:	c6 45 32 00          	movb   $0x0,0x32(%rbp)
    2be3:	89 df                	mov    %ebx,%edi
    2be5:	e8 b6 e2 ff ff       	callq  ea0 <close@plt>
    2bea:	b8 ff ff ff ff       	mov    $0xffffffff,%eax
    2bef:	e9 5c fd ff ff       	jmpq   2950 <submitr+0x2e7>
    2bf4:	48 b8 45 72 72 6f 72 	movabs $0x43203a726f727245,%rax
    2bfb:	3a 20 43 
    2bfe:	48 ba 6c 69 65 6e 74 	movabs $0x6e7520746e65696c,%rdx
    2c05:	20 75 6e 
    2c08:	48 89 45 00          	mov    %rax,0x0(%rbp)
    2c0c:	48 89 55 08          	mov    %rdx,0x8(%rbp)
    2c10:	48 b8 61 62 6c 65 20 	movabs $0x206f7420656c6261,%rax
    2c17:	74 6f 20 
    2c1a:	48 ba 72 65 61 64 20 	movabs $0x7269662064616572,%rdx
    2c21:	66 69 72 
    2c24:	48 89 45 10          	mov    %rax,0x10(%rbp)
    2c28:	48 89 55 18          	mov    %rdx,0x18(%rbp)
    2c2c:	48 b8 73 74 20 68 65 	movabs $0x6564616568207473,%rax
    2c33:	61 64 65 
    2c36:	48 ba 72 20 66 72 6f 	movabs $0x72206d6f72662072,%rdx
    2c3d:	6d 20 72 
    2c40:	48 89 45 20          	mov    %rax,0x20(%rbp)
    2c44:	48 89 55 28          	mov    %rdx,0x28(%rbp)
    2c48:	48 b8 65 73 75 6c 74 	movabs $0x657320746c757365,%rax
    2c4f:	20 73 65 
    2c52:	48 89 45 30          	mov    %rax,0x30(%rbp)
    2c56:	c7 45 38 72 76 65 72 	movl   $0x72657672,0x38(%rbp)
    2c5d:	c6 45 3c 00          	movb   $0x0,0x3c(%rbp)
    2c61:	89 df                	mov    %ebx,%edi
    2c63:	e8 38 e2 ff ff       	callq  ea0 <close@plt>
    2c68:	b8 ff ff ff ff       	mov    $0xffffffff,%eax
    2c6d:	e9 de fc ff ff       	jmpq   2950 <submitr+0x2e7>
    2c72:	48 8d b4 24 50 20 00 	lea    0x2050(%rsp),%rsi
    2c79:	00 
    2c7a:	48 8d 7c 24 40       	lea    0x40(%rsp),%rdi
    2c7f:	ba 00 20 00 00       	mov    $0x2000,%edx
    2c84:	e8 29 f8 ff ff       	callq  24b2 <rio_readlineb>
    2c89:	48 85 c0             	test   %rax,%rax
    2c8c:	0f 8e 96 00 00 00    	jle    2d28 <submitr+0x6bf>
    2c92:	44 8b 44 24 2c       	mov    0x2c(%rsp),%r8d
    2c97:	41 81 f8 c8 00 00 00 	cmp    $0xc8,%r8d
    2c9e:	0f 85 08 01 00 00    	jne    2dac <submitr+0x743>
    2ca4:	48 8d b4 24 50 20 00 	lea    0x2050(%rsp),%rsi
    2cab:	00 
    2cac:	48 89 ef             	mov    %rbp,%rdi
    2caf:	e8 7c e1 ff ff       	callq  e30 <strcpy@plt>
    2cb4:	89 df                	mov    %ebx,%edi
    2cb6:	e8 e5 e1 ff ff       	callq  ea0 <close@plt>
    2cbb:	b9 04 00 00 00       	mov    $0x4,%ecx
    2cc0:	48 8d 3d 89 0c 00 00 	lea    0xc89(%rip),%rdi        # 3950 <trans_char+0xf0>
    2cc7:	48 89 ee             	mov    %rbp,%rsi
    2cca:	f3 a6                	repz cmpsb %es:(%rdi),%ds:(%rsi)
    2ccc:	0f 97 c0             	seta   %al
    2ccf:	1c 00                	sbb    $0x0,%al
    2cd1:	0f be c0             	movsbl %al,%eax
    2cd4:	85 c0                	test   %eax,%eax
    2cd6:	0f 84 74 fc ff ff    	je     2950 <submitr+0x2e7>
    2cdc:	b9 05 00 00 00       	mov    $0x5,%ecx
    2ce1:	48 8d 3d 6c 0c 00 00 	lea    0xc6c(%rip),%rdi        # 3954 <trans_char+0xf4>
    2ce8:	48 89 ee             	mov    %rbp,%rsi
    2ceb:	f3 a6                	repz cmpsb %es:(%rdi),%ds:(%rsi)
    2ced:	0f 97 c0             	seta   %al
    2cf0:	1c 00                	sbb    $0x0,%al
    2cf2:	0f be c0             	movsbl %al,%eax
    2cf5:	85 c0                	test   %eax,%eax
    2cf7:	0f 84 53 fc ff ff    	je     2950 <submitr+0x2e7>
    2cfd:	b9 03 00 00 00       	mov    $0x3,%ecx
    2d02:	48 8d 3d 50 0c 00 00 	lea    0xc50(%rip),%rdi        # 3959 <trans_char+0xf9>
    2d09:	48 89 ee             	mov    %rbp,%rsi
    2d0c:	f3 a6                	repz cmpsb %es:(%rdi),%ds:(%rsi)
    2d0e:	0f 97 c0             	seta   %al
    2d11:	1c 00                	sbb    $0x0,%al
    2d13:	0f be c0             	movsbl %al,%eax
    2d16:	85 c0                	test   %eax,%eax
    2d18:	0f 84 32 fc ff ff    	je     2950 <submitr+0x2e7>
    2d1e:	b8 ff ff ff ff       	mov    $0xffffffff,%eax
    2d23:	e9 28 fc ff ff       	jmpq   2950 <submitr+0x2e7>
    2d28:	48 b8 45 72 72 6f 72 	movabs $0x43203a726f727245,%rax
    2d2f:	3a 20 43 
    2d32:	48 ba 6c 69 65 6e 74 	movabs $0x6e7520746e65696c,%rdx
    2d39:	20 75 6e 
    2d3c:	48 89 45 00          	mov    %rax,0x0(%rbp)
    2d40:	48 89 55 08          	mov    %rdx,0x8(%rbp)
    2d44:	48 b8 61 62 6c 65 20 	movabs $0x206f7420656c6261,%rax
    2d4b:	74 6f 20 
    2d4e:	48 ba 72 65 61 64 20 	movabs $0x6174732064616572,%rdx
    2d55:	73 74 61 
    2d58:	48 89 45 10          	mov    %rax,0x10(%rbp)
    2d5c:	48 89 55 18          	mov    %rdx,0x18(%rbp)
    2d60:	48 b8 74 75 73 20 6d 	movabs $0x7373656d20737574,%rax
    2d67:	65 73 73 
    2d6a:	48 ba 61 67 65 20 66 	movabs $0x6d6f726620656761,%rdx
    2d71:	72 6f 6d 
    2d74:	48 89 45 20          	mov    %rax,0x20(%rbp)
    2d78:	48 89 55 28          	mov    %rdx,0x28(%rbp)
    2d7c:	48 b8 20 72 65 73 75 	movabs $0x20746c7573657220,%rax
    2d83:	6c 74 20 
    2d86:	48 89 45 30          	mov    %rax,0x30(%rbp)
    2d8a:	c7 45 38 73 65 72 76 	movl   $0x76726573,0x38(%rbp)
    2d91:	66 c7 45 3c 65 72    	movw   $0x7265,0x3c(%rbp)
    2d97:	c6 45 3e 00          	movb   $0x0,0x3e(%rbp)
    2d9b:	89 df                	mov    %ebx,%edi
    2d9d:	e8 fe e0 ff ff       	callq  ea0 <close@plt>
    2da2:	b8 ff ff ff ff       	mov    $0xffffffff,%eax
    2da7:	e9 a4 fb ff ff       	jmpq   2950 <submitr+0x2e7>
    2dac:	4c 8d 8c 24 50 80 00 	lea    0x8050(%rsp),%r9
    2db3:	00 
    2db4:	48 8d 0d 1d 0b 00 00 	lea    0xb1d(%rip),%rcx        # 38d8 <trans_char+0x78>
    2dbb:	48 c7 c2 ff ff ff ff 	mov    $0xffffffffffffffff,%rdx
    2dc2:	be 01 00 00 00       	mov    $0x1,%esi
    2dc7:	48 89 ef             	mov    %rbp,%rdi
    2dca:	b8 00 00 00 00       	mov    $0x0,%eax
    2dcf:	e8 0c e2 ff ff       	callq  fe0 <__sprintf_chk@plt>
    2dd4:	89 df                	mov    %ebx,%edi
    2dd6:	e8 c5 e0 ff ff       	callq  ea0 <close@plt>
    2ddb:	b8 ff ff ff ff       	mov    $0xffffffff,%eax
    2de0:	e9 6b fb ff ff       	jmpq   2950 <submitr+0x2e7>
    2de5:	e8 76 e0 ff ff       	callq  e60 <__stack_chk_fail@plt>

0000000000002dea <init_timeout>:
    2dea:	85 ff                	test   %edi,%edi
    2dec:	74 28                	je     2e16 <init_timeout+0x2c>
    2dee:	53                   	push   %rbx
    2def:	89 fb                	mov    %edi,%ebx
    2df1:	85 ff                	test   %edi,%edi
    2df3:	78 1a                	js     2e0f <init_timeout+0x25>
    2df5:	48 8d 35 9d f5 ff ff 	lea    -0xa63(%rip),%rsi        # 2399 <sigalrm_handler>
    2dfc:	bf 0e 00 00 00       	mov    $0xe,%edi
    2e01:	e8 ba e0 ff ff       	callq  ec0 <signal@plt>
    2e06:	89 df                	mov    %ebx,%edi
    2e08:	e8 83 e0 ff ff       	callq  e90 <alarm@plt>
    2e0d:	5b                   	pop    %rbx
    2e0e:	c3                   	retq   
    2e0f:	bb 00 00 00 00       	mov    $0x0,%ebx
    2e14:	eb df                	jmp    2df5 <init_timeout+0xb>
    2e16:	f3 c3                	repz retq 

0000000000002e18 <init_driver>:
    2e18:	41 54                	push   %r12
    2e1a:	55                   	push   %rbp
    2e1b:	53                   	push   %rbx
    2e1c:	48 83 ec 20          	sub    $0x20,%rsp
    2e20:	49 89 fc             	mov    %rdi,%r12
    2e23:	64 48 8b 04 25 28 00 	mov    %fs:0x28,%rax
    2e2a:	00 00 
    2e2c:	48 89 44 24 18       	mov    %rax,0x18(%rsp)
    2e31:	31 c0                	xor    %eax,%eax
    2e33:	be 01 00 00 00       	mov    $0x1,%esi
    2e38:	bf 0d 00 00 00       	mov    $0xd,%edi
    2e3d:	e8 7e e0 ff ff       	callq  ec0 <signal@plt>
    2e42:	be 01 00 00 00       	mov    $0x1,%esi
    2e47:	bf 1d 00 00 00       	mov    $0x1d,%edi
    2e4c:	e8 6f e0 ff ff       	callq  ec0 <signal@plt>
    2e51:	be 01 00 00 00       	mov    $0x1,%esi
    2e56:	bf 1d 00 00 00       	mov    $0x1d,%edi
    2e5b:	e8 60 e0 ff ff       	callq  ec0 <signal@plt>
    2e60:	ba 00 00 00 00       	mov    $0x0,%edx
    2e65:	be 01 00 00 00       	mov    $0x1,%esi
    2e6a:	bf 02 00 00 00       	mov    $0x2,%edi
    2e6f:	e8 7c e1 ff ff       	callq  ff0 <socket@plt>
    2e74:	85 c0                	test   %eax,%eax
    2e76:	0f 88 a3 00 00 00    	js     2f1f <init_driver+0x107>
    2e7c:	89 c3                	mov    %eax,%ebx
    2e7e:	48 8d 3d 83 0a 00 00 	lea    0xa83(%rip),%rdi        # 3908 <trans_char+0xa8>
    2e85:	e8 46 e0 ff ff       	callq  ed0 <gethostbyname@plt>
    2e8a:	48 85 c0             	test   %rax,%rax
    2e8d:	0f 84 df 00 00 00    	je     2f72 <init_driver+0x15a>
    2e93:	48 89 e5             	mov    %rsp,%rbp
    2e96:	48 c7 44 24 02 00 00 	movq   $0x0,0x2(%rsp)
    2e9d:	00 00 
    2e9f:	c7 45 0a 00 00 00 00 	movl   $0x0,0xa(%rbp)
    2ea6:	66 c7 45 0e 00 00    	movw   $0x0,0xe(%rbp)
    2eac:	66 c7 04 24 02 00    	movw   $0x2,(%rsp)
    2eb2:	48 63 50 14          	movslq 0x14(%rax),%rdx
    2eb6:	48 8b 40 18          	mov    0x18(%rax),%rax
    2eba:	48 8b 30             	mov    (%rax),%rsi
    2ebd:	48 8d 7d 04          	lea    0x4(%rbp),%rdi
    2ec1:	b9 0c 00 00 00       	mov    $0xc,%ecx
    2ec6:	e8 15 e0 ff ff       	callq  ee0 <__memmove_chk@plt>
    2ecb:	66 c7 44 24 02 3c 9a 	movw   $0x9a3c,0x2(%rsp)
    2ed2:	ba 10 00 00 00       	mov    $0x10,%edx
    2ed7:	48 89 ee             	mov    %rbp,%rsi
    2eda:	89 df                	mov    %ebx,%edi
    2edc:	e8 df e0 ff ff       	callq  fc0 <connect@plt>
    2ee1:	85 c0                	test   %eax,%eax
    2ee3:	0f 88 fb 00 00 00    	js     2fe4 <init_driver+0x1cc>
    2ee9:	89 df                	mov    %ebx,%edi
    2eeb:	e8 b0 df ff ff       	callq  ea0 <close@plt>
    2ef0:	66 41 c7 04 24 4f 4b 	movw   $0x4b4f,(%r12)
    2ef7:	41 c6 44 24 02 00    	movb   $0x0,0x2(%r12)
    2efd:	b8 00 00 00 00       	mov    $0x0,%eax
    2f02:	48 8b 4c 24 18       	mov    0x18(%rsp),%rcx
    2f07:	64 48 33 0c 25 28 00 	xor    %fs:0x28,%rcx
    2f0e:	00 00 
    2f10:	0f 85 3f 01 00 00    	jne    3055 <init_driver+0x23d>
    2f16:	48 83 c4 20          	add    $0x20,%rsp
    2f1a:	5b                   	pop    %rbx
    2f1b:	5d                   	pop    %rbp
    2f1c:	41 5c                	pop    %r12
    2f1e:	c3                   	retq   
    2f1f:	48 b8 45 72 72 6f 72 	movabs $0x43203a726f727245,%rax
    2f26:	3a 20 43 
    2f29:	48 ba 6c 69 65 6e 74 	movabs $0x6e7520746e65696c,%rdx
    2f30:	20 75 6e 
    2f33:	49 89 04 24          	mov    %rax,(%r12)
    2f37:	49 89 54 24 08       	mov    %rdx,0x8(%r12)
    2f3c:	48 b8 61 62 6c 65 20 	movabs $0x206f7420656c6261,%rax
    2f43:	74 6f 20 
    2f46:	48 ba 63 72 65 61 74 	movabs $0x7320657461657263,%rdx
    2f4d:	65 20 73 
    2f50:	49 89 44 24 10       	mov    %rax,0x10(%r12)
    2f55:	49 89 54 24 18       	mov    %rdx,0x18(%r12)
    2f5a:	41 c7 44 24 20 6f 63 	movl   $0x656b636f,0x20(%r12)
    2f61:	6b 65 
    2f63:	66 41 c7 44 24 24 74 	movw   $0x74,0x24(%r12)
    2f6a:	00 
    2f6b:	b8 ff ff ff ff       	mov    $0xffffffff,%eax
    2f70:	eb 90                	jmp    2f02 <init_driver+0xea>
    2f72:	48 b8 45 72 72 6f 72 	movabs $0x44203a726f727245,%rax
    2f79:	3a 20 44 
    2f7c:	48 ba 4e 53 20 69 73 	movabs $0x6e7520736920534e,%rdx
    2f83:	20 75 6e 
    2f86:	49 89 04 24          	mov    %rax,(%r12)
    2f8a:	49 89 54 24 08       	mov    %rdx,0x8(%r12)
    2f8f:	48 b8 61 62 6c 65 20 	movabs $0x206f7420656c6261,%rax
    2f96:	74 6f 20 
    2f99:	48 ba 72 65 73 6f 6c 	movabs $0x2065766c6f736572,%rdx
    2fa0:	76 65 20 
    2fa3:	49 89 44 24 10       	mov    %rax,0x10(%r12)
    2fa8:	49 89 54 24 18       	mov    %rdx,0x18(%r12)
    2fad:	48 b8 73 65 72 76 65 	movabs $0x6120726576726573,%rax
    2fb4:	72 20 61 
    2fb7:	49 89 44 24 20       	mov    %rax,0x20(%r12)
    2fbc:	41 c7 44 24 28 64 64 	movl   $0x65726464,0x28(%r12)
    2fc3:	72 65 
    2fc5:	66 41 c7 44 24 2c 73 	movw   $0x7373,0x2c(%r12)
    2fcc:	73 
    2fcd:	41 c6 44 24 2e 00    	movb   $0x0,0x2e(%r12)
    2fd3:	89 df                	mov    %ebx,%edi
    2fd5:	e8 c6 de ff ff       	callq  ea0 <close@plt>
    2fda:	b8 ff ff ff ff       	mov    $0xffffffff,%eax
    2fdf:	e9 1e ff ff ff       	jmpq   2f02 <init_driver+0xea>
    2fe4:	48 b8 6f 6e 61 77 73 	movabs $0x6f632e7377616e6f,%rax
    2feb:	2e 63 6f 
    2fee:	49 89 44 24 20       	mov    %rax,0x20(%r12)
    2ff3:	66 41 c7 44 24 28 6d 	movw   $0x6d,0x28(%r12)
    2ffa:	00 
    2ffb:	48 b8 45 72 72 6f 72 	movabs $0x55203a726f727245,%rax
    3002:	3a 20 55 
    3005:	48 ba 6e 61 62 6c 65 	movabs $0x6f7420656c62616e,%rdx
    300c:	20 74 6f 
    300f:	49 89 04 24          	mov    %rax,(%r12)
    3013:	49 89 54 24 08       	mov    %rdx,0x8(%r12)
    3018:	48 b8 20 63 6f 6e 6e 	movabs $0x7463656e6e6f6320,%rax
    301f:	65 63 74 
    3022:	48 ba 20 74 6f 20 73 	movabs $0x76726573206f7420,%rdx
    3029:	65 72 76 
    302c:	49 89 44 24 10       	mov    %rax,0x10(%r12)
    3031:	49 89 54 24 18       	mov    %rdx,0x18(%r12)
    3036:	66 41 c7 44 24 20 65 	movw   $0x7265,0x20(%r12)
    303d:	72 
    303e:	41 c6 44 24 22 00    	movb   $0x0,0x22(%r12)
    3044:	89 df                	mov    %ebx,%edi
    3046:	e8 55 de ff ff       	callq  ea0 <close@plt>
    304b:	b8 ff ff ff ff       	mov    $0xffffffff,%eax
    3050:	e9 ad fe ff ff       	jmpq   2f02 <init_driver+0xea>
    3055:	e8 06 de ff ff       	callq  e60 <__stack_chk_fail@plt>

000000000000305a <driver_post>:
    305a:	53                   	push   %rbx
    305b:	4c 89 cb             	mov    %r9,%rbx
    305e:	45 85 c0             	test   %r8d,%r8d
    3061:	75 18                	jne    307b <driver_post+0x21>
    3063:	48 85 ff             	test   %rdi,%rdi
    3066:	74 05                	je     306d <driver_post+0x13>
    3068:	80 3f 00             	cmpb   $0x0,(%rdi)
    306b:	75 37                	jne    30a4 <driver_post+0x4a>
    306d:	66 c7 03 4f 4b       	movw   $0x4b4f,(%rbx)
    3072:	c6 43 02 00          	movb   $0x0,0x2(%rbx)
    3076:	44 89 c0             	mov    %r8d,%eax
    3079:	5b                   	pop    %rbx
    307a:	c3                   	retq   
    307b:	48 89 ca             	mov    %rcx,%rdx
    307e:	48 8d 35 d7 08 00 00 	lea    0x8d7(%rip),%rsi        # 395c <trans_char+0xfc>
    3085:	bf 01 00 00 00       	mov    $0x1,%edi
    308a:	b8 00 00 00 00       	mov    $0x0,%eax
    308f:	e8 cc de ff ff       	callq  f60 <__printf_chk@plt>
    3094:	66 c7 03 4f 4b       	movw   $0x4b4f,(%rbx)
    3099:	c6 43 02 00          	movb   $0x0,0x2(%rbx)
    309d:	b8 00 00 00 00       	mov    $0x0,%eax
    30a2:	eb d5                	jmp    3079 <driver_post+0x1f>
    30a4:	48 83 ec 08          	sub    $0x8,%rsp
    30a8:	41 51                	push   %r9
    30aa:	49 89 c9             	mov    %rcx,%r9
    30ad:	49 89 d0             	mov    %rdx,%r8
    30b0:	48 89 f9             	mov    %rdi,%rcx
    30b3:	48 89 f2             	mov    %rsi,%rdx
    30b6:	be 9a 3c 00 00       	mov    $0x3c9a,%esi
    30bb:	48 8d 3d 46 08 00 00 	lea    0x846(%rip),%rdi        # 3908 <trans_char+0xa8>
    30c2:	e8 a2 f5 ff ff       	callq  2669 <submitr>
    30c7:	48 83 c4 10          	add    $0x10,%rsp
    30cb:	eb ac                	jmp    3079 <driver_post+0x1f>

00000000000030cd <check>:
    30cd:	89 f8                	mov    %edi,%eax
    30cf:	c1 e8 1c             	shr    $0x1c,%eax
    30d2:	85 c0                	test   %eax,%eax
    30d4:	74 1d                	je     30f3 <check+0x26>
    30d6:	b9 00 00 00 00       	mov    $0x0,%ecx
    30db:	83 f9 1f             	cmp    $0x1f,%ecx
    30de:	7f 0d                	jg     30ed <check+0x20>
    30e0:	89 f8                	mov    %edi,%eax
    30e2:	d3 e8                	shr    %cl,%eax
    30e4:	3c 0a                	cmp    $0xa,%al
    30e6:	74 11                	je     30f9 <check+0x2c>
    30e8:	83 c1 08             	add    $0x8,%ecx
    30eb:	eb ee                	jmp    30db <check+0xe>
    30ed:	b8 01 00 00 00       	mov    $0x1,%eax
    30f2:	c3                   	retq   
    30f3:	b8 00 00 00 00       	mov    $0x0,%eax
    30f8:	c3                   	retq   
    30f9:	b8 00 00 00 00       	mov    $0x0,%eax
    30fe:	c3                   	retq   

00000000000030ff <gencookie>:
    30ff:	53                   	push   %rbx
    3100:	83 c7 01             	add    $0x1,%edi
    3103:	e8 08 dd ff ff       	callq  e10 <srandom@plt>
    3108:	e8 13 de ff ff       	callq  f20 <random@plt>
    310d:	89 c3                	mov    %eax,%ebx
    310f:	89 c7                	mov    %eax,%edi
    3111:	e8 b7 ff ff ff       	callq  30cd <check>
    3116:	85 c0                	test   %eax,%eax
    3118:	74 ee                	je     3108 <gencookie+0x9>
    311a:	89 d8                	mov    %ebx,%eax
    311c:	5b                   	pop    %rbx
    311d:	c3                   	retq   
    311e:	66 90                	xchg   %ax,%ax

0000000000003120 <__libc_csu_init>:
    3120:	41 57                	push   %r15
    3122:	41 56                	push   %r14
    3124:	49 89 d7             	mov    %rdx,%r15
    3127:	41 55                	push   %r13
    3129:	41 54                	push   %r12
    312b:	4c 8d 25 86 1b 20 00 	lea    0x201b86(%rip),%r12        # 204cb8 <__frame_dummy_init_array_entry>
    3132:	55                   	push   %rbp
    3133:	48 8d 2d 86 1b 20 00 	lea    0x201b86(%rip),%rbp        # 204cc0 <__init_array_end>
    313a:	53                   	push   %rbx
    313b:	41 89 fd             	mov    %edi,%r13d
    313e:	49 89 f6             	mov    %rsi,%r14
    3141:	4c 29 e5             	sub    %r12,%rbp
    3144:	48 83 ec 08          	sub    $0x8,%rsp
    3148:	48 c1 fd 03          	sar    $0x3,%rbp
    314c:	e8 77 dc ff ff       	callq  dc8 <_init>
    3151:	48 85 ed             	test   %rbp,%rbp
    3154:	74 20                	je     3176 <__libc_csu_init+0x56>
    3156:	31 db                	xor    %ebx,%ebx
    3158:	0f 1f 84 00 00 00 00 	nopl   0x0(%rax,%rax,1)
    315f:	00 
    3160:	4c 89 fa             	mov    %r15,%rdx
    3163:	4c 89 f6             	mov    %r14,%rsi
    3166:	44 89 ef             	mov    %r13d,%edi
    3169:	41 ff 14 dc          	callq  *(%r12,%rbx,8)
    316d:	48 83 c3 01          	add    $0x1,%rbx
    3171:	48 39 dd             	cmp    %rbx,%rbp
    3174:	75 ea                	jne    3160 <__libc_csu_init+0x40>
    3176:	48 83 c4 08          	add    $0x8,%rsp
    317a:	5b                   	pop    %rbx
    317b:	5d                   	pop    %rbp
    317c:	41 5c                	pop    %r12
    317e:	41 5d                	pop    %r13
    3180:	41 5e                	pop    %r14
    3182:	41 5f                	pop    %r15
    3184:	c3                   	retq   
    3185:	90                   	nop
    3186:	66 2e 0f 1f 84 00 00 	nopw   %cs:0x0(%rax,%rax,1)
    318d:	00 00 00 

0000000000003190 <__libc_csu_fini>:
    3190:	f3 c3                	repz retq 

Disassembly of section .fini:

0000000000003194 <_fini>:
    3194:	48 83 ec 08          	sub    $0x8,%rsp
    3198:	48 83 c4 08          	add    $0x8,%rsp
    319c:	c3                   	retq   
